(dp0
S'event_id'
p1
(dp2
S'length'
p3
I512
sS'unique'
p4
I00
sS'sortable'
p5
I2
sS'sql'
p6
S'INTEGER REFERENCES "event" ("id") ON DELETE CASCADE  '
p7
sS'notnull'
p8
I00
sS'type'
p9
S'reference_event'
p10
ssS'volunteer_id'
p11
(dp12
g3
I512
sg4
I00
sg5
I3
sg6
S'INTEGER REFERENCES "volunteer" ("id") ON DELETE CASCADE  '
p13
sg8
I00
sg9
S'reference volunteer'
p14
ssS'id'
p15
(dp16
g3
I512
sg4
I00
sg5
I1
sg6
S'INTEGER PRIMARY KEY AUTOINCREMENT'
p17
sg8
I00
sg9
g15
ss.