(dp0
S'project_id'
p1
(dp2
S'length'
p3
I32768
sS'unique'
p4
I00
sS'sortable'
p5
I2
sS'sql'
p6
S'TEXT'
p7
sS'notnull'
p8
I00
sS'type'
p9
S'text'
p10
ssS'id'
p11
(dp12
g3
I512
sg4
I00
sg5
I1
sg6
S'INTEGER PRIMARY KEY AUTOINCREMENT'
p13
sg8
I00
sg9
g11
ss.