(dp1
S'output'
p2
S"<type 'exceptions.AttributeError'> 'NoneType' object has no attribute 'replace'"
p3
sS'layer'
p4
S'/home/yanesl/websites/foodbank/applications/admin/views/default/user.html'
p5
sS'code'
p6
S'response.write(\'<!DOCTYPE html>\\n<html xmlns="http://www.w3.org/1999/xhtml" xml:lang="en" lang="en">\\n\\n    <head>\\n        <meta http-equiv="content-type" content="text/html; charset=utf-8" />\\n        <meta http-equiv="P3P" content="CP=\\\\"IDC DSP COR CURa ADMa OUR IND PHY ONL COM STA\\\\"" />\\n        <meta name="viewport" content="width=device-width, initial-scale=1.0">\\n        <title>\', escape=False)\nresponse.write(response.title or URL())\nresponse.write(\'</title>\\n        \', escape=False)\nresponse.files.append(URL(\'static\',\'css/bootstrap.min.css\'))\nresponse.files.append(URL(\'static\',\'css/bootstrap_essentials.css\'))\nresponse.files.append(URL(\'static\',\'css/bootstrap-responsive.min.css\'))\nresponse.write(\'\\n        \', escape=False)\nresponse.write(\'<script type="text/javascript"><!--\\n    // These variables are used by the web2py_ajax_init function in web2py_ajax.js (which is loaded below).\\n    var w2p_ajax_confirm_message = "\', escape=False)\nresponse.write(T(\'Are you sure you want to delete this object?\'))\nresponse.write(\'";\\n    var w2p_ajax_date_format = "\', escape=False)\nresponse.write(T(\'%Y-%m-%d\'))\nresponse.write(\'";\\n    var w2p_ajax_datetime_format = "\', escape=False)\nresponse.write(T(\'%Y-%m-%d %H:%M:%S\'))\nresponse.write(\'";\\n    var w2p_ajax_disable_with_message = "\', escape=False)\nresponse.write(T(\'Working...\'))\nresponse.write(\'";\\n    var ajax_error_500 = \\\'\', escape=False)\nresponse.write(T.M(\'An error occured, please [[reload %s]] the page\') % URL(args=request.args, vars=request.get_vars))\nresponse.write("\'\\n    //--></script>\\n", escape=False)\nresponse.files.insert(0,URL(\'static\',\'js/jquery.js\'))\nresponse.files.insert(1,URL(\'static\',\'css/calendar.css\'))\nresponse.files.insert(2,URL(\'static\',\'js/calendar.js\'))\nresponse.files.insert(3,URL(\'static\',\'js/web2py.js\'))\nresponse.include_meta()\nresponse.include_files()\nresponse.write(\'\\n\', escape=False)\nresponse.write(\'\\n    </head>\\n\\n    <body class="\', escape=False)\nresponse.write(T(\'direction: ltr\') == \'direction: rtl\' and \'RTLbody\' or \'\')\nresponse.write(\' \', escape=False)\nresponse.write(\'home\', escape=False)\nresponse.write(\'">\\n\\n        <!-- NAVBAR\\n        ============== -->\\n        <div id="header" class="navbar navbar-inverse navbar-fixed-top">\\n            <div class="navbar-inner">\\n                <div class="container-fluid">\\n                    <button type="button" class="btn btn-navbar" data-toggle="collapse" data-target=".nav-collapse">\\n                        <span class="icon-bar"></span>\\n                        <span class="icon-bar"></span>\\n                        <span class="icon-bar"></span>\\n                    </button>\\n                    <div id="start" class="brand_wrapper">\\n                        <a href="\', escape=False)\nresponse.write(URL(\'default\', \'index\'))\nresponse.write(\'" class="button brand" ><span>web2py&trade; \', escape=False)\nresponse.write(T(\'administrative interface\'))\nresponse.write(\'</span></a>\\n                    </div>\\n                    <div class="nav-collapse">\\n                        \', escape=False)\nif response.menu is not None:\n    response.write(\'\\n                        <ul id="menu" class="nav pull-right">\\n                            \', escape=False)\n    for _name,_active,_link in response.menu:\n        response.write(\'\\n                            <li>\', escape=False)\n        response.write(A(SPAN(_name), _href=_link, _class=_active and \'button select\' or \'button\'))\n        response.write(\'</li>\\n                            \', escape=False)\n        pass\n    response.write(\'\\n                        </ul>\\n                        \', escape=False)\n    pass\nresponse.write(\'\\n                    </div><!--/.nav-collapse -->\\n                </div><!-- /container-fluid -->\\n            </div><!-- /navbar-inner -->\\n        </div><!-- /#header -->\\n\\n        <!-- MAIN\\n        =========== -->\\n            <div id="\', escape=False)\nresponse.write(globals().get(\'main_id\', \'main\'))\nresponse.write(\'" class="container-fluid">\\n                <div id="main_inner" class="row-fluid">\\n                    <div class="span12">\\n                        <div class="w2p_flash alert">\', escape=False)\nresponse.write(response.flash or \'\')\nresponse.write(\'</div>\\n                        \', escape=False)\nresponse.write(\'\\n<!-- begin "user" block -->\\n<h2>\', escape=False)\nresponse.write(T( request.args(0).replace(\'_\',\' \').capitalize() ))\nresponse.write(\'</h2>\\n<div id="web2py_user_form">\\n\', escape=False)\nif \'auth\' in globals():\n    response.write(\'\\n\', escape=False)\n    # add bootstrap class to form\n    form[\'_class\']=\'span4 well well-small\'\n    # change form.custom.begin\n    form.custom.begin=XML("<%s %s>" % (form.tag,form._xml()[0]))\n    if request.args(0)==\'login\':\n        # delete empty label\n        d = form.elements("tr#auth_user_remember__row")\n        d[0][0] = " "\n        # remake remember checkbox\n        cbx_inp=form.element(_name=\'remember\')\n        cbx_inp[\'_class\']=""\n        cbx_lbl=form.element(_for=\'auth_user_remember\')[0]\n        form.element(\'div\',replace=LABEL(cbx_inp,cbx_lbl,_class="checkbox"))\n        # new form buttons\n        smt = form.element(\'input\',_type=\'submit\')\n        smt[\'_class\']=\'btn\'\n        btns = [smt]\n        if not \'register\' in auth.settings.actions_disabled:\n            btns.append(A(T(\'register\'),_href=URL(r=request,args=\'register\'),_class=\'btn btn-lnk\'))\n            pass\n        if not \'request_reset_password\' in auth.settings.actions_disabled:\n            btns.append(A(T(\'lost password\'),_href=URL(r=request,args=\'request_reset_password\'),_class=\'btn btn-lnk\'))\n            pass\n        form.element(\'input[type=submit]\',replace=DIV(*btns,_class="controls-inline"))\n        pass\n    if request.args(0)in[\'register\',\'profile\']:\n        # remake is_manager checkbox\n        cbx_inp=form.element(_name=\'is_manager\')\n        cbx_lbl=form.element(_for=\'auth_user_is_manager\')[0]\n        form.element(_name=\'is_manager\',replace=lambda cbx_inp : LABEL(cbx_inp,cbx_lbl,_class="checkbox"))\n        # delete is manager label\n        d = form.elements("tr#auth_user_is_manager__row")\n        d[0][0][0] = " "\n        # new form buttons\n        smt = form.element(\'input\',_type=\'submit\')\n        smt[\'_class\']=\'btn\'\n        form.element(\'input[type=submit]\',replace=lambda button: DIV(button,_class="controls-inline"))\n        pass\n    if request.args(0)in [\'request_reset_password\',\'change_password\']:\n        # new form buttons\n        smt = form.element(\'input\',_type=\'submit\')\n        smt[\'_class\']=\'btn\'\n        form.element(\'input[type=submit]\',replace=lambda button: DIV(button,_class="controls-inline"))\n        pass\n    response.write(\'\\n\', escape=False)\n    response.write(form.custom.begin)\n    response.write(\'\\n\', escape=False)\n    for e in form.components[0]:\n        response.write(\'\\n  \', escape=False)\n        response.write(e[0][0])\n        response.write(\'\\n  \', escape=False)\n        response.write(e[1][0])\n        response.write(\'\\n\', escape=False)\n        pass\n    response.write(\'\\n\', escape=False)\n    response.write(form.custom.end)\n    response.write(\'\\n\', escape=False)\nelse:\n    response.write(\'\\n\', escape=False)\n    response.write(form)\n    response.write(\'\\n\', escape=False)\n    pass\nresponse.write(\'\\n</div>\\n<script language="javascript">\\n//<!--\\n jQuery("#web2py_user_form input:visible:enabled:first").focus();\\n//-->\\n</script>\\n<!-- end "user" block -->\\n\', escape=False)\nresponse.write(\'\\n                    </div><!-- /main span12 -->\\n                </div><!-- /main row-fluid -->\\n            </div><!-- /#main -->\\n\\n        <!-- FOOTER\\n        ============== -->\\n        \', escape=False)\nresponse.write(\'\\n        <footer id="footer" class="fixed">\\n            <p><span>\', escape=False)\nresponse.write(T(\'Powered by\'))\nresponse.write(\' \', escape=False)\nresponse.write(A(\'web2py\', _href=\'http://www.web2py.com\'))\nresponse.write(\'&trade; \', escape=False)\nresponse.write(T(\'created by\'))\nresponse.write(\' Massimo Di Pierro &copy;2007-\', escape=False)\nresponse.write(request.now.year)\nresponse.write(\'\\n                \', escape=False)\nif hasattr(T,\'get_possible_languages_info\'):\n    response.write(\'\\n                - \', escape=False)\n    response.write(T(\'Admin language\'))\n    response.write(\'</span>\\n                <select name="adminlanguage" onchange="var date = new Date();cookieDate=date.setTime(date.getTime()+(100*24*60*60*1000));document.cookie=\\\'adminLanguage=\\\'+this.options[this.selectedIndex].id+\\\'; expires=\\\'+cookieDate+\\\'; path=/\\\';window.location.reload()">\\n                    \', escape=False)\n    for langinfo in sorted([(code,info[1]) for code,info in T.get_possible_languages_info().iteritems() if code != \'default\']):\n        response.write(\'\\n                    <option \', escape=False)\n        response.write(T.accepted_language==langinfo[0] and \'selected\' or \'\')\n        response.write(\' \', escape=False)\n        response.write(\'id=\'+langinfo[0])\n        response.write(\' >\', escape=False)\n        response.write(langinfo[1])\n        response.write(\'</option>\\n                    \', escape=False)\n        pass\n    response.write(\'\\n                </select>\\n                \', escape=False)\nelse:\n    response.write(\'\\n                </span>\', escape=False)\n    pass\nresponse.write(\'\\n            </p>\\n        </footer><!-- /#footer -->\\n        \', escape=False)\nresponse.write(\'\\n\\n        <!-- BS JAVASCRIPT\\n        ====================== -->\\n        <script src="\', escape=False)\nresponse.write(URL(\'static\',\'js/bootstrap.min.js\'))\nresponse.write(\'"></script>\\n        <script type="text/javascript">\\n            jQuery(document).ready(function(){\\n                jQuery("[rel=tooltip]").tooltip();\\n                jQuery(":input").attr("autocomplete","off");\\n            });\\n        </script>\\n        <script>\\n            // ====================\\n            // upload input mask\\n            // ====================\\n\\n            function FileSelectHandler(e) {\\n                e.stopPropagation();\\n                var filename = e.target.value.split(/\\\\\\\\|\\\\//).pop();\\n                jQuery(\\\'#fileselect>span\\\').removeClass(\\\'txtPlaceholder\\\').text(filename)\\n            }\\n\\n            jQuery(document).ready(function(){\\n                var iupload = jQuery(\\\'#appupdate_file\\\');\\n                var ow = 300, oh = 20;\\n                var iplaceholder = jQuery(\\\'<span class="txtPlaceholder">\', escape=False)\nresponse.write(T("no package selected"))\nresponse.write(\'</span>\\\'),\\n                    iuploadbtn = jQuery(\\\'<button class="btn btn-inverse btn-mini uploadbtn"><i class="icon-white icon-circle-arrow-up"></i></button>\\\');\\n                iupload\\n                    .addClass(\\\'masked\\\')\\n                    .wrap(\\\'<div id="fileselect" style="width:\\\'+ow+\\\'px;height:\\\'+oh+\\\'px"></div>\\\')\\n                    .on(\\\'change\\\', function(event){FileSelectHandler(event)});\\n                jQuery(\\\'#fileselect\\\').append(iplaceholder, iuploadbtn);\\n            });\\n        </script>\\n\\n        \', escape=False)\nif request.function in (\'index\',\'site\'):\n    response.write(\'\\n        <a style="position:fixed;bottom:0;left:0;z-index:1000" href="https://groups.google.com/forum/?fromgroups#!forum/web2py" target="_blank">\\n            <!-- http://webchat.freenode.net/?channels=web2py" //-->\\n            <img src="\', escape=False)\n    response.write(URL(\'static\',\'images/questions.png\'))\n    response.write(\'" />\\n        </a>\\n        \', escape=False)\n    pass\nresponse.write(\'\\n    </body>\\n</html>\\n\', escape=False)'
p7
sS'snapshot'
p8
(dp9
S'exception'
p10
(dp11
S'__hash__'
p12
S"<method-wrapper '__hash__' of exceptions.AttributeError object>"
p13
sS'__setattr__'
p14
S"<method-wrapper '__setattr__' of exceptions.AttributeError object>"
p15
sS'__reduce_ex__'
p16
S'<built-in method __reduce_ex__ of exceptions.AttributeError object>'
p17
sS'__getslice__'
p18
S"<method-wrapper '__getslice__' of exceptions.AttributeError object>"
p19
sS'__getitem__'
p20
S"<method-wrapper '__getitem__' of exceptions.AttributeError object>"
p21
sS'__setstate__'
p22
S'<built-in method __setstate__ of exceptions.AttributeError object>'
p23
sS'args'
p24
S'("\'NoneType\' object has no attribute \'replace\'",)'
p25
sS'__reduce__'
p26
S'<built-in method __reduce__ of exceptions.AttributeError object>'
p27
sS'__str__'
p28
S"<method-wrapper '__str__' of exceptions.AttributeError object>"
p29
sS'__format__'
p30
S'<built-in method __format__ of exceptions.AttributeError object>'
p31
sS'__getattribute__'
p32
S"<method-wrapper '__getattribute__' of exceptions.AttributeError object>"
p33
sS'__class__'
p34
S"<type 'exceptions.AttributeError'>"
p35
sS'__unicode__'
p36
S'<built-in method __unicode__ of exceptions.AttributeError object>'
p37
sS'__delattr__'
p38
S"<method-wrapper '__delattr__' of exceptions.AttributeError object>"
p39
sS'__subclasshook__'
p40
S'<built-in method __subclasshook__ of type object>'
p41
sS'__repr__'
p42
S"<method-wrapper '__repr__' of exceptions.AttributeError object>"
p43
sS'__dict__'
p44
S'{}'
p45
sS'__sizeof__'
p46
S'<built-in method __sizeof__ of exceptions.AttributeError object>'
p47
sS'__doc__'
p48
S"'Attribute not found.'"
p49
sS'__init__'
p50
S"<method-wrapper '__init__' of exceptions.AttributeError object>"
p51
sS'__new__'
p52
S'<built-in method __new__ of type object>'
p53
ssS'evalue'
p54
S"'NoneType' object has no attribute 'replace'"
p55
sS'request'
p56
cgluon.html
XML_unpickle
p57
(S'syY\x00\x00<div><table><tr><td style="font-weight:bold;vertical-align:top;">ajax</td><td style="vertical-align:top;">:</td><td><div>False</div></td></tr><tr><td style="font-weight:bold;vertical-align:top;">application</td><td style="vertical-align:top;">:</td><td><div>admin</div></td></tr><tr><td style="font-weight:bold;vertical-align:top;">args</td><td style="vertical-align:top;">:</td><td><div><table></table></div></td></tr><tr><td style="font-weight:bold;vertical-align:top;">cid</td><td style="vertical-align:top;">:</td><td><div>None</div></td></tr><tr><td style="font-weight:bold;vertical-align:top;">client</td><td style="vertical-align:top;">:</td><td><div>127.0.0.1</div></td></tr><tr><td style="font-weight:bold;vertical-align:top;">controller</td><td style="vertical-align:top;">:</td><td><div>default</div></td></tr><tr><td style="font-weight:bold;vertical-align:top;">cookies</td><td style="vertical-align:top;">:</td><td><div><table><tr><td style="font-weight:bold;vertical-align:top;">session_id_admin</td><td style="vertical-align:top;">:</td><td><div>127.0.0.1-f4450b22-ea76-4cc3-b57c-f0460ba4ab35<table><tr><td style="font-weight:bold;vertical-align:top;">comment</td><td style="vertical-align:top;">:</td><td><div></div></td></tr><tr><td style="font-weight:bold;vertical-align:top;">domain</td><td style="vertical-align:top;">:</td><td><div></div></td></tr><tr><td style="font-weight:bold;vertical-align:top;">expires</td><td style="vertical-align:top;">:</td><td><div></div></td></tr><tr><td style="font-weight:bold;vertical-align:top;">httponly</td><td style="vertical-align:top;">:</td><td><div></div></td></tr><tr><td style="font-weight:bold;vertical-align:top;">max-age</td><td style="vertical-align:top;">:</td><td><div></div></td></tr><tr><td style="font-weight:bold;vertical-align:top;">path</td><td style="vertical-align:top;">:</td><td><div></div></td></tr><tr><td style="font-weight:bold;vertical-align:top;">secure</td><td style="vertical-align:top;">:</td><td><div></div></td></tr><tr><td style="font-weight:bold;vertical-align:top;">version</td><td style="vertical-align:top;">:</td><td><div></div></td></tr></table></div></td></tr><tr><td style="font-weight:bold;vertical-align:top;">session_id_foodbank</td><td style="vertical-align:top;">:</td><td><div>127.0.0.1-6f95ed98-9737-4ee5-8c0c-6e17d9d30ef5<table><tr><td style="font-weight:bold;vertical-align:top;">comment</td><td style="vertical-align:top;">:</td><td><div></div></td></tr><tr><td style="font-weight:bold;vertical-align:top;">domain</td><td style="vertical-align:top;">:</td><td><div></div></td></tr><tr><td style="font-weight:bold;vertical-align:top;">expires</td><td style="vertical-align:top;">:</td><td><div></div></td></tr><tr><td style="font-weight:bold;vertical-align:top;">httponly</td><td style="vertical-align:top;">:</td><td><div></div></td></tr><tr><td style="font-weight:bold;vertical-align:top;">max-age</td><td style="vertical-align:top;">:</td><td><div></div></td></tr><tr><td style="font-weight:bold;vertical-align:top;">path</td><td style="vertical-align:top;">:</td><td><div></div></td></tr><tr><td style="font-weight:bold;vertical-align:top;">secure</td><td style="vertical-align:top;">:</td><td><div></div></td></tr><tr><td style="font-weight:bold;vertical-align:top;">version</td><td style="vertical-align:top;">:</td><td><div></div></td></tr></table></div></td></tr><tr><td style="font-weight:bold;vertical-align:top;">session_id_welcome</td><td style="vertical-align:top;">:</td><td><div>127.0.0.1-f7fd2485-5209-43b7-ba03-af3bda9eb282<table><tr><td style="font-weight:bold;vertical-align:top;">comment</td><td style="vertical-align:top;">:</td><td><div></div></td></tr><tr><td style="font-weight:bold;vertical-align:top;">domain</td><td style="vertical-align:top;">:</td><td><div></div></td></tr><tr><td style="font-weight:bold;vertical-align:top;">expires</td><td style="vertical-align:top;">:</td><td><div></div></td></tr><tr><td style="font-weight:bold;vertical-align:top;">httponly</td><td style="vertical-align:top;">:</td><td><div></div></td></tr><tr><td style="font-weight:bold;vertical-align:top;">max-age</td><td style="vertical-align:top;">:</td><td><div></div></td></tr><tr><td style="font-weight:bold;vertical-align:top;">path</td><td style="vertical-align:top;">:</td><td><div></div></td></tr><tr><td style="font-weight:bold;vertical-align:top;">secure</td><td style="vertical-align:top;">:</td><td><div></div></td></tr><tr><td style="font-weight:bold;vertical-align:top;">version</td><td style="vertical-align:top;">:</td><td><div></div></td></tr></table></div></td></tr></table></div></td></tr><tr><td style="font-weight:bold;vertical-align:top;">env</td><td style="vertical-align:top;">:</td><td><div><table><tr><td style="font-weight:bold;vertical-align:top;">HTTP_ACCEPT</td><td style="vertical-align:top;">:</td><td><div>text/html,application/xhtml+xml,application/xml;q=0.9,*/*;q=0.8</div></td></tr><tr><td style="font-weight:bold;vertical-align:top;">HTTP_ACCEPT_ENCODING</td><td style="vertical-align:top;">:</td><td><div>gzip, deflate</div></td></tr><tr><td style="font-weight:bold;vertical-align:top;">HTTP_ACCEPT_LANGUAGE</td><td style="vertical-align:top;">:</td><td><div>en-US,en;q=0.5</div></td></tr><tr><td style="font-weight:bold;vertical-align:top;">HTTP_CONNECTION</td><td style="vertical-align:top;">:</td><td><div>keep-alive</div></td></tr><tr><td style="font-weight:bold;vertical-align:top;">HTTP_COOKIE</td><td style="vertical-align:top;">:</td><td><div>session_id_welcome=127.0.0.1-f7fd2485-5209-43b7-ba03-af3bda9eb282; session_id_foodbank=127.0.0.1-6f95ed98-9737-4ee5-8c0c-6e17d9d30ef5; session_id_admin=127.0.0.1-f4450b22-ea76-4cc3-b57c-f0460ba4ab35</div></td></tr><tr><td style="font-weight:bold;vertical-align:top;">HTTP_HOST</td><td style="vertical-align:top;">:</td><td><div>127.0.0.1:8000</div></td></tr><tr><td style="font-weight:bold;vertical-align:top;">HTTP_UPGRADE_INSECURE_REQUESTS</td><td style="vertical-align:top;">:</td><td><div>1</div></td></tr><tr><td style="font-weight:bold;vertical-align:top;">HTTP_USER_AGENT</td><td style="vertical-align:top;">:</td><td><div>Mozilla/5.0 (X11; Linux x86_64; rv:50.0) Gecko/20100101 Firefox/50.0</div></td></tr><tr><td style="font-weight:bold;vertical-align:top;">PATH_INFO</td><td style="vertical-align:top;">:</td><td><div>/admin/default/user</div></td></tr><tr><td style="font-weight:bold;vertical-align:top;">QUERY_STRING</td><td style="vertical-align:top;">:</td><td><div></div></td></tr><tr><td style="font-weight:bold;vertical-align:top;">REMOTE_ADDR</td><td style="vertical-align:top;">:</td><td><div>127.0.0.1</div></td></tr><tr><td style="font-weight:bold;vertical-align:top;">REMOTE_PORT</td><td style="vertical-align:top;">:</td><td><div>55948</div></td></tr><tr><td style="font-weight:bold;vertical-align:top;">REQUEST_METHOD</td><td style="vertical-align:top;">:</td><td><div>GET</div></td></tr><tr><td style="font-weight:bold;vertical-align:top;">SCRIPT_NAME</td><td style="vertical-align:top;">:</td><td><div></div></td></tr><tr><td style="font-weight:bold;vertical-align:top;">SERVER_NAME</td><td style="vertical-align:top;">:</td><td><div>linux.suse</div></td></tr><tr><td style="font-weight:bold;vertical-align:top;">SERVER_PORT</td><td style="vertical-align:top;">:</td><td><div>8000</div></td></tr><tr><td style="font-weight:bold;vertical-align:top;">SERVER_PROTOCOL</td><td style="vertical-align:top;">:</td><td><div>HTTP/1.1</div></td></tr><tr><td style="font-weight:bold;vertical-align:top;">SERVER_SOFTWARE</td><td style="vertical-align:top;">:</td><td><div>Rocket 1.2.6</div></td></tr><tr><td style="font-weight:bold;vertical-align:top;">app_folders</td><td style="vertical-align:top;">:</td><td><div>set([&#x27;/home/yanesl/websites/foodbank/applications/admin/&#x27;, &#x27;/home/yanesl/websites/foodbank/applications/welcome/&#x27;, &#x27;/home/yanesl/websites/foodbank/applications/foodbank/&#x27;])</div></td></tr><tr><td style="font-weight:bold;vertical-align:top;">applications_parent</td><td style="vertical-align:top;">:</td><td><div>/home/yanesl/websites/foodbank</div></td></tr><tr><td style="font-weight:bold;vertical-align:top;">cmd_args</td><td style="vertical-align:top;">:</td><td><div><table></table></div></td></tr><tr><td style="font-weight:bold;vertical-align:top;">cmd_options</td><td style="vertical-align:top;">:</td><td><div>&lt;Values at 0x7f6dfaea8128: {&#x27;verbose&#x27;: False, &#x27;ip&#x27;: &#x27;127.0.0.1&#x27;, &#x27;debuglevel&#x27;: 30, &#x27;with_scheduler&#x27;: False, &#x27;shutdown_timeout&#x27;: 5, &#x27;taskbar&#x27;: False, &#x27;with_coverage&#x27;: False, &#x27;pid_filename&#x27;: &#x27;httpserver.pid&#x27;, &#x27;maxthreads&#x27;: None, &#x27;softcron&#x27;: False, &#x27;server_name&#x27;: &#x27;linux.suse&#x27;, &#x27;bpython&#x27;: False, &#x27;nogui&#x27;: False, &#x27;port&#x27;: 8000, &#x27;print_errors&#x27;: False, &#x27;extcron&#x27;: False, &#x27;runcron&#x27;: False, &#x27;run_system_tests&#x27;: False, &#x27;test&#x27;: None, &#x27;folder&#x27;: &#x27;/home/yanesl/websites/foodbank&#x27;, &#x27;config&#x27;: &#x27;&#x27;, &#x27;minthreads&#x27;: None, &#x27;shell&#x27;: None, &#x27;run&#x27;: &#x27;&#x27;, &#x27;log_filename&#x27;: &#x27;httpserver.log&#x27;, &#x27;profiler_dir&#x27;: None, &#x27;args&#x27;: [&#x27;&#x27;], &#x27;socket_timeout&#x27;: 5, &#x27;ssl_ca_certificate&#x27;: None, &#x27;scheduler&#x27;: None, &#x27;interfaces&#x27;: None, &#x27;ssl_private_key&#x27;: &#x27;&#x27;, &#x27;gae&#x27;: None, &#x27;password&#x27;: &#x27;******&#x27;, &#x27;request_queue_size&#x27;: 5, &#x27;ssl_certificate&#x27;: &#x27;&#x27;, &#x27;cronjob&#x27;: False, &#x27;numthreads&#x27;: None, &#x27;quiet&#x27;: False, &#x27;import_models&#x27;: False, &#x27;timeout&#x27;: 10, &#x27;plain&#x27;: False, &#x27;nobanner&#x27;: False}&gt;</div></td></tr><tr><td style="font-weight:bold;vertical-align:top;">db_sessions</td><td style="vertical-align:top;">:</td><td><div>set([])</div></td></tr><tr><td style="font-weight:bold;vertical-align:top;">debugging</td><td style="vertical-align:top;">:</td><td><div>False</div></td></tr><tr><td style="font-weight:bold;vertical-align:top;">gluon_parent</td><td style="vertical-align:top;">:</td><td><div>/home/yanesl/websites/foodbank</div></td></tr><tr><td style="font-weight:bold;vertical-align:top;">http_accept</td><td style="vertical-align:top;">:</td><td><div>text/html,application/xhtml+xml,application/xml;q=0.9,*/*;q=0.8</div></td></tr><tr><td style="font-weight:bold;vertical-align:top;">http_accept_encoding</td><td style="vertical-align:top;">:</td><td><div>gzip, deflate</div></td></tr><tr><td style="font-weight:bold;vertical-align:top;">http_accept_language</td><td style="vertical-align:top;">:</td><td><div>en-US,en;q=0.5</div></td></tr><tr><td style="font-weight:bold;vertical-align:top;">http_connection</td><td style="vertical-align:top;">:</td><td><div>keep-alive</div></td></tr><tr><td style="font-weight:bold;vertical-align:top;">http_cookie</td><td style="vertical-align:top;">:</td><td><div>session_id_welcome=127.0.0.1-f7fd2485-5209-43b7-ba03-af3bda9eb282; session_id_foodbank=127.0.0.1-6f95ed98-9737-4ee5-8c0c-6e17d9d30ef5; session_id_admin=127.0.0.1-f4450b22-ea76-4cc3-b57c-f0460ba4ab35</div></td></tr><tr><td style="font-weight:bold;vertical-align:top;">http_host</td><td style="vertical-align:top;">:</td><td><div>127.0.0.1:8000</div></td></tr><tr><td style="font-weight:bold;vertical-align:top;">http_upgrade_insecure_requests</td><td style="vertical-align:top;">:</td><td><div>1</div></td></tr><tr><td style="font-weight:bold;vertical-align:top;">http_user_agent</td><td style="vertical-align:top;">:</td><td><div>Mozilla/5.0 (X11; Linux x86_64; rv:50.0) Gecko/20100101 Firefox/50.0</div></td></tr><tr><td style="font-weight:bold;vertical-align:top;">is_jython</td><td style="vertical-align:top;">:</td><td><div>False</div></td></tr><tr><td style="font-weight:bold;vertical-align:top;">is_pypy</td><td style="vertical-align:top;">:</td><td><div>False</div></td></tr><tr><td style="font-weight:bold;vertical-align:top;">is_source</td><td style="vertical-align:top;">:</td><td><div>True</div></td></tr><tr><td style="font-weight:bold;vertical-align:top;">local_hosts</td><td style="vertical-align:top;">:</td><td><div><table><tr><td><div>linux.suse</div></td></tr><tr><td><div>::1</div></td></tr><tr><td><div>::ffff:127.0.0.1</div></td></tr><tr><td><div>127.0.0.1</div></td></tr></table></div></td></tr><tr><td style="font-weight:bold;vertical-align:top;">path_info</td><td style="vertical-align:top;">:</td><td><div>/admin/default/user</div></td></tr><tr><td style="font-weight:bold;vertical-align:top;">query_string</td><td style="vertical-align:top;">:</td><td><div></div></td></tr><tr><td style="font-weight:bold;vertical-align:top;">remote_addr</td><td style="vertical-align:top;">:</td><td><div>127.0.0.1</div></td></tr><tr><td style="font-weight:bold;vertical-align:top;">remote_port</td><td style="vertical-align:top;">:</td><td><div>55948</div></td></tr><tr><td style="font-weight:bold;vertical-align:top;">request_method</td><td style="vertical-align:top;">:</td><td><div>GET</div></td></tr><tr><td style="font-weight:bold;vertical-align:top;">request_uri</td><td style="vertical-align:top;">:</td><td><div>/admin/default/user</div></td></tr><tr><td style="font-weight:bold;vertical-align:top;">script_name</td><td style="vertical-align:top;">:</td><td><div></div></td></tr><tr><td style="font-weight:bold;vertical-align:top;">server_name</td><td style="vertical-align:top;">:</td><td><div>linux.suse</div></td></tr><tr><td style="font-weight:bold;vertical-align:top;">server_port</td><td style="vertical-align:top;">:</td><td><div>8000</div></td></tr><tr><td style="font-weight:bold;vertical-align:top;">server_protocol</td><td style="vertical-align:top;">:</td><td><div>HTTP/1.1</div></td></tr><tr><td style="font-weight:bold;vertical-align:top;">server_software</td><td style="vertical-align:top;">:</td><td><div>Rocket 1.2.6</div></td></tr><tr><td style="font-weight:bold;vertical-align:top;">web2py_path</td><td style="vertical-align:top;">:</td><td><div>/home/yanesl/websites/foodbank</div></td></tr><tr><td style="font-weight:bold;vertical-align:top;">web2py_version</td><td style="vertical-align:top;">:</td><td><div>2.14.6-stable+timestamp.2016.05.10.00.21.47</div></td></tr><tr><td style="font-weight:bold;vertical-align:top;">wsgi.errors</td><td style="vertical-align:top;">:</td><td><div>&lt;open file &#x27;&lt;stderr&gt;&#x27;, mode &#x27;w&#x27; at 0x7f6e048401e0&gt;</div></td></tr><tr><td style="font-weight:bold;vertical-align:top;">wsgi.file_wrapper</td><td style="vertical-align:top;">:</td><td><div>&lt;class wsgiref.util.FileWrapper at 0x7f6dfaed04c8&gt;</div></td></tr><tr><td style="font-weight:bold;vertical-align:top;">wsgi.input</td><td style="vertical-align:top;">:</td><td><div>&lt;socket._fileobject object at 0x7f6de87bee50&gt;</div></td></tr><tr><td style="font-weight:bold;vertical-align:top;">wsgi.multiprocess</td><td style="vertical-align:top;">:</td><td><div>False</div></td></tr><tr><td style="font-weight:bold;vertical-align:top;">wsgi.multithread</td><td style="vertical-align:top;">:</td><td><div>True</div></td></tr><tr><td style="font-weight:bold;vertical-align:top;">wsgi.run_once</td><td style="vertical-align:top;">:</td><td><div>False</div></td></tr><tr><td style="font-weight:bold;vertical-align:top;">wsgi.url_scheme</td><td style="vertical-align:top;">:</td><td><div>http</div></td></tr><tr><td style="font-weight:bold;vertical-align:top;">wsgi.version</td><td style="vertical-align:top;">:</td><td><div><table><tr><td><div>1</div></td></tr><tr><td><div>0</div></td></tr></table></div></td></tr><tr><td style="font-weight:bold;vertical-align:top;">wsgi_errors</td><td style="vertical-align:top;">:</td><td><div>&lt;open file &#x27;&lt;stderr&gt;&#x27;, mode &#x27;w&#x27; at 0x7f6e048401e0&gt;</div></td></tr><tr><td style="font-weight:bold;vertical-align:top;">wsgi_file_wrapper</td><td style="vertical-align:top;">:</td><td><div>&lt;class wsgiref.util.FileWrapper at 0x7f6dfaed04c8&gt;</div></td></tr><tr><td style="font-weight:bold;vertical-align:top;">wsgi_input</td><td style="vertical-align:top;">:</td><td><div>&lt;socket._fileobject object at 0x7f6de87bee50&gt;</div></td></tr><tr><td style="font-weight:bold;vertical-align:top;">wsgi_multiprocess</td><td style="vertical-align:top;">:</td><td><div>False</div></td></tr><tr><td style="font-weight:bold;vertical-align:top;">wsgi_multithread</td><td style="vertical-align:top;">:</td><td><div>True</div></td></tr><tr><td style="font-weight:bold;vertical-align:top;">wsgi_run_once</td><td style="vertical-align:top;">:</td><td><div>False</div></td></tr><tr><td style="font-weight:bold;vertical-align:top;">wsgi_url_scheme</td><td style="vertical-align:top;">:</td><td><div>http</div></td></tr><tr><td style="font-weight:bold;vertical-align:top;">wsgi_version</td><td style="vertical-align:top;">:</td><td><div><table><tr><td><div>1</div></td></tr><tr><td><div>0</div></td></tr></table></div></td></tr></table></div></td></tr><tr><td style="font-weight:bold;vertical-align:top;">extension</td><td style="vertical-align:top;">:</td><td><div>html</div></td></tr><tr><td style="font-weight:bold;vertical-align:top;">folder</td><td style="vertical-align:top;">:</td><td><div>/home/yanesl/websites/foodbank/applications/admin/</div></td></tr><tr><td style="font-weight:bold;vertical-align:top;">function</td><td style="vertical-align:top;">:</td><td><div>user</div></td></tr><tr><td style="font-weight:bold;vertical-align:top;">global_settings</td><td style="vertical-align:top;">:</td><td><div><table><tr><td style="font-weight:bold;vertical-align:top;">app_folders</td><td style="vertical-align:top;">:</td><td><div>set([&#x27;/home/yanesl/websites/foodbank/applications/admin/&#x27;, &#x27;/home/yanesl/websites/foodbank/applications/welcome/&#x27;, &#x27;/home/yanesl/websites/foodbank/applications/foodbank/&#x27;])</div></td></tr><tr><td style="font-weight:bold;vertical-align:top;">applications_parent</td><td style="vertical-align:top;">:</td><td><div>/home/yanesl/websites/foodbank</div></td></tr><tr><td style="font-weight:bold;vertical-align:top;">cmd_args</td><td style="vertical-align:top;">:</td><td><div><table></table></div></td></tr><tr><td style="font-weight:bold;vertical-align:top;">cmd_options</td><td style="vertical-align:top;">:</td><td><div>&lt;Values at 0x7f6dfaea8128: {&#x27;verbose&#x27;: False, &#x27;ip&#x27;: &#x27;127.0.0.1&#x27;, &#x27;debuglevel&#x27;: 30, &#x27;with_scheduler&#x27;: False, &#x27;shutdown_timeout&#x27;: 5, &#x27;taskbar&#x27;: False, &#x27;with_coverage&#x27;: False, &#x27;pid_filename&#x27;: &#x27;httpserver.pid&#x27;, &#x27;maxthreads&#x27;: None, &#x27;softcron&#x27;: False, &#x27;server_name&#x27;: &#x27;linux.suse&#x27;, &#x27;bpython&#x27;: False, &#x27;nogui&#x27;: False, &#x27;port&#x27;: 8000, &#x27;print_errors&#x27;: False, &#x27;extcron&#x27;: False, &#x27;runcron&#x27;: False, &#x27;run_system_tests&#x27;: False, &#x27;test&#x27;: None, &#x27;folder&#x27;: &#x27;/home/yanesl/websites/foodbank&#x27;, &#x27;config&#x27;: &#x27;&#x27;, &#x27;minthreads&#x27;: None, &#x27;shell&#x27;: None, &#x27;run&#x27;: &#x27;&#x27;, &#x27;log_filename&#x27;: &#x27;httpserver.log&#x27;, &#x27;profiler_dir&#x27;: None, &#x27;args&#x27;: [&#x27;&#x27;], &#x27;socket_timeout&#x27;: 5, &#x27;ssl_ca_certificate&#x27;: None, &#x27;scheduler&#x27;: None, &#x27;interfaces&#x27;: None, &#x27;ssl_private_key&#x27;: &#x27;&#x27;, &#x27;gae&#x27;: None, &#x27;password&#x27;: &#x27;******&#x27;, &#x27;request_queue_size&#x27;: 5, &#x27;ssl_certificate&#x27;: &#x27;&#x27;, &#x27;cronjob&#x27;: False, &#x27;numthreads&#x27;: None, &#x27;quiet&#x27;: False, &#x27;import_models&#x27;: False, &#x27;timeout&#x27;: 10, &#x27;plain&#x27;: False, &#x27;nobanner&#x27;: False}&gt;</div></td></tr><tr><td style="font-weight:bold;vertical-align:top;">db_sessions</td><td style="vertical-align:top;">:</td><td><div>set([])</div></td></tr><tr><td style="font-weight:bold;vertical-align:top;">debugging</td><td style="vertical-align:top;">:</td><td><div>False</div></td></tr><tr><td style="font-weight:bold;vertical-align:top;">gluon_parent</td><td style="vertical-align:top;">:</td><td><div>/home/yanesl/websites/foodbank</div></td></tr><tr><td style="font-weight:bold;vertical-align:top;">is_jython</td><td style="vertical-align:top;">:</td><td><div>False</div></td></tr><tr><td style="font-weight:bold;vertical-align:top;">is_pypy</td><td style="vertical-align:top;">:</td><td><div>False</div></td></tr><tr><td style="font-weight:bold;vertical-align:top;">is_source</td><td style="vertical-align:top;">:</td><td><div>True</div></td></tr><tr><td style="font-weight:bold;vertical-align:top;">local_hosts</td><td style="vertical-align:top;">:</td><td><div><table><tr><td><div>linux.suse</div></td></tr><tr><td><div>::1</div></td></tr><tr><td><div>::ffff:127.0.0.1</div></td></tr><tr><td><div>127.0.0.1</div></td></tr></table></div></td></tr><tr><td style="font-weight:bold;vertical-align:top;">web2py_version</td><td style="vertical-align:top;">:</td><td><div>2.14.6-stable+timestamp.2016.05.10.00.21.47</div></td></tr></table></div></td></tr><tr><td style="font-weight:bold;vertical-align:top;">is_https</td><td style="vertical-align:top;">:</td><td><div>False</div></td></tr><tr><td style="font-weight:bold;vertical-align:top;">is_local</td><td style="vertical-align:top;">:</td><td><div>True</div></td></tr><tr><td style="font-weight:bold;vertical-align:top;">is_restful</td><td style="vertical-align:top;">:</td><td><div>False</div></td></tr><tr><td style="font-weight:bold;vertical-align:top;">is_scheduler</td><td style="vertical-align:top;">:</td><td><div>False</div></td></tr><tr><td style="font-weight:bold;vertical-align:top;">is_shell</td><td style="vertical-align:top;">:</td><td><div>False</div></td></tr><tr><td style="font-weight:bold;vertical-align:top;">now</td><td style="vertical-align:top;">:</td><td><div>datetime.datetime(2017, 1, 20, 18, 19, 21, 479288)</div></td></tr><tr><td style="font-weight:bold;vertical-align:top;">raw_args</td><td style="vertical-align:top;">:</td><td><div></div></td></tr><tr><td style="font-weight:bold;vertical-align:top;">raw_extension</td><td style="vertical-align:top;">:</td><td><div>None</div></td></tr><tr><td style="font-weight:bold;vertical-align:top;">url</td><td style="vertical-align:top;">:</td><td><div>/admin/default/user</div></td></tr><tr><td style="font-weight:bold;vertical-align:top;">utcnow</td><td style="vertical-align:top;">:</td><td><div>datetime.datetime(2017, 1, 20, 18, 19, 21, 479418)</div></td></tr><tr><td style="font-weight:bold;vertical-align:top;">wsgi</td><td style="vertical-align:top;">:</td><td><div>&lt;gluon.main.LazyWSGI object at 0x7f6de81ef710&gt;</div></td></tr></table></div>'
tRp58
sS'frames'
p59
(lp60
(dp61
S'file'
p62
S'/home/yanesl/websites/foodbank/gluon/restricted.py'
p63
sS'dump'
p64
(dp65
S'environment'
p66
S"{'A': <class 'gluon.html.A'>, 'ANY_OF': <class 'gluon.validators.ANY_OF'>, 'ASSIGNJS': <function ASSIGNJS>, 'A_button': <function A_button>, 'B': <class 'gluon.html.B'>, 'BEAUTIFY': <class 'gluon.html.BEAUTIFY'>, 'BODY': <class 'gluon.html.BODY'>, 'BR': <class 'gluon.html.BR'>, 'BUTTON': <class 'gluon.html.BUTTON'>, 'CAT': <class 'gluon.html.CAT'>, ...}"
p67
sS'ccode'
p68
S'<code object <module> at 0x7f6df81cda30, file "/...lications/admin/views/default/user.html", line 1>'
p69
ssS'lnum'
p70
I227
sS'lines'
p71
(dp72
I224
S'            ccode = code'
p73
sI225
S'        else:'
p74
sI226
S'            ccode = compile2(code, layer)'
p75
sI227
S'        exec ccode in environment'
p76
sI228
S'    except HTTP:'
p77
sI229
S'        raise'
p78
sI230
S'    except RestrictedError:'
p79
sI231
S'        # do not encapsulate (obfuscate) the original RestrictedError'
p80
sI222
S'    try:'
p81
sI223
S'        if isinstance(code, types.CodeType):'
p82
ssS'call'
p83
S'(code=\'response.write(\\\'<!DOCTYPE html>\\\\n<html xmlns="ht...e.write(\\\'\\\\n    </body>\\\\n</html>\\\\n\\\', escape=False)\', environment={\'A\': <class \'gluon.html.A\'>, \'ANY_OF\': <class \'gluon.validators.ANY_OF\'>, \'ASSIGNJS\': <function ASSIGNJS>, \'A_button\': <function A_button>, \'B\': <class \'gluon.html.B\'>, \'BEAUTIFY\': <class \'gluon.html.BEAUTIFY\'>, \'BODY\': <class \'gluon.html.BODY\'>, \'BR\': <class \'gluon.html.BR\'>, \'BUTTON\': <class \'gluon.html.BUTTON\'>, \'CAT\': <class \'gluon.html.CAT\'>, ...}, layer=\'/home/yanesl/websites/foodbank/applications/admin/views/default/user.html\')'
p84
sS'func'
p85
S'restricted'
p86
sa(dp87
g62
S'/home/yanesl/websites/foodbank/applications/admin/views/default/user.html'
p88
sg64
(dp89
sg70
I50
sg71
(dp90
I41
S'        pass'
p91
sI42
S"    response.write('\\n                        </ul>\\n                        ', escape=False)"
p92
sI43
S'    pass'
p93
sI44
S'response.write(\'\\n                    </div><!--/.nav-collapse -->\\n                </div><!-- /container-fluid -->\\n            </div><!-- /navbar-inner -->\\n        </div><!-- /#header -->\\n\\n        <!-- MAIN\\n        =========== -->\\n            <div id="\', escape=False)'
p94
sI45
S"response.write(globals().get('main_id', 'main'))"
p95
sI46
S'response.write(\'" class="container-fluid">\\n                <div id="main_inner" class="row-fluid">\\n                    <div class="span12">\\n                        <div class="w2p_flash alert">\', escape=False)'
p96
sI47
S"response.write(response.flash or '')"
p97
sI48
S"response.write('</div>\\n                        ', escape=False)"
p98
sI49
S'response.write(\'\\n<!-- begin "user" block -->\\n<h2>\', escape=False)'
p99
sI50
S"response.write(T( request.args(0).replace('_',' ').capitalize() ))"
p100
sI51
S'response.write(\'</h2>\\n<div id="web2py_user_form">\\n\', escape=False)'
p101
sI52
S"if 'auth' in globals():"
p102
sI53
S"    response.write('\\n', escape=False)"
p103
sI54
S'    # add bootstrap class to form'
p104
sI55
S"    form['_class']='span4 well well-small'"
p105
sI56
S'    # change form.custom.begin'
p106
sI57
S'    form.custom.begin=XML("<%s %s>" % (form.tag,form._xml()[0]))'
p107
sI58
S"    if request.args(0)=='login':"
p108
sI59
S'        # delete empty label'
p109
sI60
S'        d = form.elements("tr#auth_user_remember__row")'
p110
ssg83
S'()'
p111
sg85
S'<module>'
p112
sasS'pyver'
p113
S'Python 2.7.12: /usr/bin/python (prefix: /usr)'
p114
sS'session'
p115
g57
(S's\x11\x04\x00\x00<div><table><tr><td style="font-weight:bold;vertical-align:top;">authorized</td><td style="vertical-align:top;">:</td><td><div>True</div></td></tr><tr><td style="font-weight:bold;vertical-align:top;">check_version</td><td style="vertical-align:top;">:</td><td><div>False</div></td></tr><tr><td style="font-weight:bold;vertical-align:top;">hmac_key</td><td style="vertical-align:top;">:</td><td><div>02bfe272-efc8-4bde-9831-e5c90c45514a</div></td></tr><tr><td style="font-weight:bold;vertical-align:top;">is_mobile</td><td style="vertical-align:top;">:</td><td><div>auto</div></td></tr><tr><td style="font-weight:bold;vertical-align:top;">last_time</td><td style="vertical-align:top;">:</td><td><div>1484936361.488005</div></td></tr><tr><td style="font-weight:bold;vertical-align:top;">pam_user</td><td style="vertical-align:top;">:</td><td><div>None</div></td></tr><tr><td style="font-weight:bold;vertical-align:top;">token</td><td style="vertical-align:top;">:</td><td><div>53786ed5-3421-4205-8124-f2438fefc7e1</div></td></tr></table></div>'
tRp116
sS'etype'
p117
S"<type 'exceptions.AttributeError'>"
p118
sS'date'
p119
S'Fri Jan 20 18:19:21 2017'
p120
sS'response'
p121
g57
(S's\xba\x1f\x00\x00<div><table><tr><td style="font-weight:bold;vertical-align:top;">body</td><td style="vertical-align:top;">:</td><td><div>&lt;cStringIO.StringO object at 0x7f6dc66eba78&gt;</div></td></tr><tr><td style="font-weight:bold;vertical-align:top;">cookies</td><td style="vertical-align:top;">:</td><td><div><table><tr><td style="font-weight:bold;vertical-align:top;">session_id_admin</td><td style="vertical-align:top;">:</td><td><div>127.0.0.1-f4450b22-ea76-4cc3-b57c-f0460ba4ab35<table><tr><td style="font-weight:bold;vertical-align:top;">comment</td><td style="vertical-align:top;">:</td><td><div></div></td></tr><tr><td style="font-weight:bold;vertical-align:top;">domain</td><td style="vertical-align:top;">:</td><td><div></div></td></tr><tr><td style="font-weight:bold;vertical-align:top;">expires</td><td style="vertical-align:top;">:</td><td><div></div></td></tr><tr><td style="font-weight:bold;vertical-align:top;">httponly</td><td style="vertical-align:top;">:</td><td><div></div></td></tr><tr><td style="font-weight:bold;vertical-align:top;">max-age</td><td style="vertical-align:top;">:</td><td><div></div></td></tr><tr><td style="font-weight:bold;vertical-align:top;">path</td><td style="vertical-align:top;">:</td><td><div>/</div></td></tr><tr><td style="font-weight:bold;vertical-align:top;">secure</td><td style="vertical-align:top;">:</td><td><div></div></td></tr><tr><td style="font-weight:bold;vertical-align:top;">version</td><td style="vertical-align:top;">:</td><td><div></div></td></tr></table></div></td></tr></table></div></td></tr><tr><td style="font-weight:bold;vertical-align:top;">delimiters</td><td style="vertical-align:top;">:</td><td><div><table><tr><td><div>{{</div></td></tr><tr><td><div>}}</div></td></tr></table></div></td></tr><tr><td style="font-weight:bold;vertical-align:top;">files</td><td style="vertical-align:top;">:</td><td><div><table><tr><td><div>/admin/static/_2.14.6/js/jquery.js</div></td></tr><tr><td><div>/admin/static/_2.14.6/css/calendar.css</div></td></tr><tr><td><div>/admin/static/_2.14.6/js/calendar.js</div></td></tr><tr><td><div>/admin/static/_2.14.6/js/web2py.js</div></td></tr><tr><td><div>/admin/static/_2.14.6/plugin_multiselect/jquery.multi-select.js</div></td></tr><tr><td><div>/admin/static/_2.14.6/plugin_multiselect/multi-select.css</div></td></tr><tr><td><div>/admin/static/_2.14.6/plugin_multiselect/start.js</div></td></tr><tr><td><div>/admin/static/_2.14.6/plugin_statebutton/js/bootstrap-switch.js</div></td></tr><tr><td><div>/admin/static/_2.14.6/plugin_statebutton/css/bootstrap-switch.css</div></td></tr><tr><td><div>/admin/static/_2.14.6/css/bootstrap.min.css</div></td></tr><tr><td><div>/admin/static/_2.14.6/css/bootstrap_essentials.css</div></td></tr><tr><td><div>/admin/static/_2.14.6/css/bootstrap-responsive.min.css</div></td></tr></table></div></td></tr><tr><td style="font-weight:bold;vertical-align:top;">flash</td><td style="vertical-align:top;">:</td><td><div></div></td></tr><tr><td style="font-weight:bold;vertical-align:top;">form_label_separator</td><td style="vertical-align:top;">:</td><td><div>: </div></td></tr><tr><td style="font-weight:bold;vertical-align:top;">formstyle</td><td style="vertical-align:top;">:</td><td><div>table3cols</div></td></tr><tr><td style="font-weight:bold;vertical-align:top;">generic_patterns</td><td style="vertical-align:top;">:</td><td><div><table><tr><td><div>*</div></td></tr></table></div></td></tr><tr><td style="font-weight:bold;vertical-align:top;">headers</td><td style="vertical-align:top;">:</td><td><div><table><tr><td style="font-weight:bold;vertical-align:top;">X-Powered-By</td><td style="vertical-align:top;">:</td><td><div>web2py</div></td></tr></table></div></td></tr><tr><td style="font-weight:bold;vertical-align:top;">menu</td><td style="vertical-align:top;">:</td><td><div><table><tr><td><div><table><tr><td><div>Site</div></td></tr><tr><td><div>False</div></td></tr><tr><td><div>/admin/default/site</div></td></tr></table></div></td></tr><tr><td><div><table><tr><td><div>Help</div></td></tr><tr><td><div>False</div></td></tr><tr><td><div>/examples/default/documentation</div></td></tr></table></div></td></tr><tr><td><div><table><tr><td><div>Logout</div></td></tr><tr><td><div>False</div></td></tr><tr><td><div>/admin/default/logout</div></td></tr></table></div></td></tr><tr><td><div><table><tr><td><div>Debug</div></td></tr><tr><td><div>False</div></td></tr><tr><td><div>/admin/debug/interact</div></td></tr></table></div></td></tr></table></div></td></tr><tr><td style="font-weight:bold;vertical-align:top;">meta</td><td style="vertical-align:top;">:</td><td><div><table></table></div></td></tr><tr><td style="font-weight:bold;vertical-align:top;">models_to_run</td><td style="vertical-align:top;">:</td><td><div><table><tr><td><div>^\\w+\\.py$</div></td></tr><tr><td><div>^default/\\w+\\.py$</div></td></tr><tr><td><div>^default/user/\\w+\\.py$</div></td></tr></table></div></td></tr><tr><td style="font-weight:bold;vertical-align:top;">postprocessing</td><td style="vertical-align:top;">:</td><td><div><table></table></div></td></tr><tr><td style="font-weight:bold;vertical-align:top;">session_client</td><td style="vertical-align:top;">:</td><td><div>127.0.0.1</div></td></tr><tr><td style="font-weight:bold;vertical-align:top;">session_cookie_compression_level</td><td style="vertical-align:top;">:</td><td><div>None</div></td></tr><tr><td style="font-weight:bold;vertical-align:top;">session_cookie_expires</td><td style="vertical-align:top;">:</td><td><div>None</div></td></tr><tr><td style="font-weight:bold;vertical-align:top;">session_data_name</td><td style="vertical-align:top;">:</td><td><div>session_data_admin</div></td></tr><tr><td style="font-weight:bold;vertical-align:top;">session_file</td><td style="vertical-align:top;">:</td><td><div>&lt;open file &#x27;/home/yanesl/websites/foodbank/applications/admin/sessions/127.0.0.1-f4450b22-ea76-4cc3-b57c-f0460ba4ab35&#x27;, mode &#x27;rb+&#x27; at 0x7f6df8146db0&gt;</div></td></tr><tr><td style="font-weight:bold;vertical-align:top;">session_filename</td><td style="vertical-align:top;">:</td><td><div>/home/yanesl/websites/foodbank/applications/admin/sessions/127.0.0.1-f4450b22-ea76-4cc3-b57c-f0460ba4ab35</div></td></tr><tr><td style="font-weight:bold;vertical-align:top;">session_hash</td><td style="vertical-align:top;">:</td><td><div>20c3fd3bb7ef923cef7c08cf5c594408</div></td></tr><tr><td style="font-weight:bold;vertical-align:top;">session_id</td><td style="vertical-align:top;">:</td><td><div>127.0.0.1-f4450b22-ea76-4cc3-b57c-f0460ba4ab35</div></td></tr><tr><td style="font-weight:bold;vertical-align:top;">session_id_name</td><td style="vertical-align:top;">:</td><td><div>session_id_admin</div></td></tr><tr><td style="font-weight:bold;vertical-align:top;">session_locked</td><td style="vertical-align:top;">:</td><td><div>True</div></td></tr><tr><td style="font-weight:bold;vertical-align:top;">session_masterapp</td><td style="vertical-align:top;">:</td><td><div>admin</div></td></tr><tr><td style="font-weight:bold;vertical-align:top;">session_new</td><td style="vertical-align:top;">:</td><td><div>False</div></td></tr><tr><td style="font-weight:bold;vertical-align:top;">session_storage_type</td><td style="vertical-align:top;">:</td><td><div>file</div></td></tr><tr><td style="font-weight:bold;vertical-align:top;">static_version</td><td style="vertical-align:top;">:</td><td><div>2.14.6</div></td></tr><tr><td style="font-weight:bold;vertical-align:top;">static_version_urls</td><td style="vertical-align:top;">:</td><td><div>True</div></td></tr><tr><td style="font-weight:bold;vertical-align:top;">status</td><td style="vertical-align:top;">:</td><td><div>200</div></td></tr><tr><td style="font-weight:bold;vertical-align:top;">subtitle</td><td style="vertical-align:top;">:</td><td><div>admin</div></td></tr><tr><td style="font-weight:bold;vertical-align:top;">title</td><td style="vertical-align:top;">:</td><td><div>user </div></td></tr><tr><td style="font-weight:bold;vertical-align:top;">view</td><td style="vertical-align:top;">:</td><td><div>default/user.html</div></td></tr></table></div>'
tRp122
sS'locals'
p123
(dp124
S'OBJECT'
p125
S"<class 'gluon.html.OBJECT'>"
p126
sS'helpicon'
p127
S'<function helpicon>'
p128
sS'SQLDB'
p129
S"<class 'pydal.base.DAL'>"
p130
sS'read_hosts_deny'
p131
S'<function read_hosts_deny>'
p132
sg115
S"<Storage {'_user_agent': <Storage {'os': <Storag...-4ce8b458e463'], 'last_time': 1484936361.488005}>"
p133
sS'LINK'
p134
S"<class 'gluon.html.LINK'>"
p135
sS'BR'
p136
S"<class 'gluon.html.BR'>"
p137
sS'local_import'
p138
S'<function <lambda>>'
p139
sS'OPTGROUP'
p140
S"<class 'gluon.html.OPTGROUP'>"
p141
sS'__package__'
p142
S'None'
p143
sS'compile2'
p144
S'<function compile2>'
p145
sS'redirect'
p146
S'<function redirect>'
p147
sS'IS_INT_IN_RANGE'
p148
S"<class 'gluon.validators.IS_INT_IN_RANGE'>"
p149
sS'IS_LOWER'
p150
S"<class 'gluon.validators.IS_LOWER'>"
p151
sS'IS_STRONG'
p152
S"<class 'gluon.validators.IS_STRONG'>"
p153
sS'write_hosts_deny'
p154
S'<function write_hosts_deny>'
p155
sS'base64'
p156
S"<module 'base64' from '/usr/lib64/python2.7/base64.pyc'>"
p157
sS'_link'
p158
S"'/admin/debug/interact'"
p159
sS'IS_IN_DB'
p160
S"<class 'gluon.validators.IS_IN_DB'>"
p161
sS'TAG'
p162
S'<gluon.html.__TAG__ object>'
p163
sS'WEB2PY_VERSION_URL'
p164
S"'http://web2py.com/examples/default/version'"
p165
sS'EM'
p166
S"<class 'gluon.html.EM'>"
p167
sS'__name__'
p168
S"'__restricted__'"
p169
sS'SQLField'
p170
S"<class 'pydal.objects.Field'>"
p171
sS'_f'
p172
S"'user'"
p173
sS'_c'
p174
S"'default'"
p175
sS'_a'
p176
S"'admin'"
p177
sS'BODY'
p178
S"<class 'gluon.html.BODY'>"
p179
sS'IS_DATE_IN_RANGE'
p180
S"<class 'gluon.validators.IS_DATE_IN_RANGE'>"
p181
sS'button_enable'
p182
S'<function button_enable>'
p183
sS'IFRAME'
p184
S"<class 'gluon.html.IFRAME'>"
p185
sS'ON'
p186
S'True'
p187
sS'URL'
p188
S'<function URL>'
p189
sS'__file__'
p190
S"'/home/yanesl/websites/foodbank/applications/admin/views/default/user.html'"
p191
sS'TFOOT'
p192
S"<class 'gluon.html.TFOOT'>"
p193
sS'P'
S"<class 'gluon.html.P'>"
p194
sS'T'
S'<gluon.languages.translator object>'
p195
sS'XHTML'
p196
S"<class 'gluon.html.XHTML'>"
p197
sS'deny_file'
p198
S"'/home/yanesl/websites/foodbank/applications/admin/private/hosts.deny'"
p199
sS'regex_include'
p200
S'<_sre.SRE_Pattern object>'
p201
sS'TicketStorage'
p202
S"<class 'gluon.restricted.TicketStorage'>"
p203
sS'OL'
p204
S"<class 'gluon.html.OL'>"
p205
sS'TEXTAREA'
p206
S"<class 'gluon.html.TEXTAREA'>"
p207
sS'MENU'
p208
S"<class 'gluon.html.MENU'>"
p209
sS'button'
p210
S'<function button>'
p211
sS'EMAIL_LOGIN'
p212
S'None'
p213
sS't0'
p214
S'1484936361.488005'
p215
sS'STYLE'
p216
S"<class 'gluon.html.STYLE'>"
p217
sS'WEB2PY_URL'
p218
S"'http://web2py.com'"
p219
sS'cgi'
p220
S"<module 'cgi' from '/usr/lib64/python2.7/cgi.pyc'>"
p221
sS'CODE'
p222
S"<class 'gluon.html.CODE'>"
p223
sS'HTTP'
p224
S"<class 'gluon.http.HTTP'>"
p225
sS'is_gae'
p226
S'False'
p227
sS'HR'
p228
S"<class 'gluon.html.HR'>"
p229
sS'IS_DATETIME'
p230
S"<class 'gluon.validators.IS_DATETIME'>"
p231
sS'login_record'
p232
S'<function login_record>'
p233
sS'expiration_failed_logins'
p234
S'3600'
p235
sS'LABEL'
p236
S"<class 'gluon.html.LABEL'>"
p237
sS'CLEANUP'
p238
S"<class 'gluon.validators.CLEANUP'>"
p239
sS'read_file'
p240
S'<function read_file>'
p241
sS'port'
p242
S'8000'
p243
sS'SELECT'
p244
S"<class 'gluon.html.SELECT'>"
p245
sS'DEMO_MODE'
p246
g227
sS'sp_button'
p247
S'<function sp_button>'
p248
sS'LAYOUTS_APP'
p249
S"'http://web2py.com/layouts'"
p250
sS'regex_tables'
p251
S'<_sre.SRE_Pattern object>'
p252
sS'CENTER'
p253
S"<class 'gluon.html.CENTER'>"
p254
sS'allowed_number_of_attempts'
p255
S'5'
sg86
S'<function restricted>'
p256
sS'urllib'
p257
S"<module 'urllib' from '/usr/lib64/python2.7/urllib.pyc'>"
p258
sS'__builtins__'
p259
S"{'ArithmeticError': <type 'exceptions.ArithmeticError'>, 'AssertionError': <type 'exceptions.AssertionError'>, 'AttributeError': <type 'exceptions.AttributeError'>, 'BaseException': <type 'exceptions.BaseException'>, 'BufferError': <type 'exceptions.BufferError'>, 'BytesWarning': <type 'exceptions.BytesWarning'>, 'DeprecationWarning': <type 'exceptions.DeprecationWarning'>, 'EOFError': <type 'exceptions.EOFError'>, 'Ellipsis': Ellipsis, 'EnvironmentError': <type 'exceptions.EnvironmentError'>, ...}"
p260
sS'regex_longcomments'
p261
S'<_sre.SRE_Pattern object>'
p262
sS'HTML'
p263
S"<class 'gluon.html.HTML'>"
p264
sS'SQLFORM'
p265
S"<class 'gluon.sqlhtml.SQLFORM'>"
p266
sS'EMAIL_SERVER'
p267
S"'localhost'"
p268
sS'difflib'
p269
S"<module 'difflib' from '/usr/lib64/python2.7/difflib.pyc'>"
p270
sS'tar_compiled'
p271
S'<function tar_compiled>'
p272
sS'searchbox'
p273
S'<function searchbox>'
p274
sS'LOAD'
p275
S'<function LOAD>'
p276
sS'PRE'
p277
S"<class 'gluon.html.PRE'>"
p278
sS'FIELDSET'
p279
S"<class 'gluon.html.FIELDSET'>"
p280
sS'remove_compiled_application'
p281
S'<function remove_compiled_application>'
p282
sS'IS_EQUAL_TO'
p283
S"<class 'gluon.validators.IS_EQUAL_TO'>"
p284
sS'FILTER_APPS'
p285
S'[]'
p286
sS'HEAD'
p287
S"<class 'gluon.html.HEAD'>"
p288
sS'embed64'
p289
S'<function embed64>'
p290
sS'IS_LIST_OF'
p291
S"<class 'gluon.validators.IS_LIST_OF'>"
p292
sS'INPUT'
p293
S"<class 'gluon.html.INPUT'>"
p294
sS'EMBED'
p295
S"<class 'gluon.html.EMBED'>"
p296
sS'FORM'
p297
S"<class 'gluon.html.FORM'>"
p298
sS'verify_password'
p299
S'<function verify_password>'
p300
sS'H2'
p301
S"<class 'gluon.html.H2'>"
p302
sS'H3'
p303
S"<class 'gluon.html.H3'>"
p304
sS'BUTTON'
p305
S"<class 'gluon.html.BUTTON'>"
p306
sS'H1'
p307
S"<class 'gluon.html.H1'>"
p308
sS'H6'
p309
S"<class 'gluon.html.H6'>"
p310
sS'portalocker'
p311
S"<module 'gluon.portalocker' from '/home/yanesl/websites/foodbank/gluon/portalocker.pyc'>"
p312
sS'is_manager'
p313
S'<function is_manager>'
p314
sS'H5'
p315
S"<class 'gluon.html.H5'>"
p316
sS'UL'
p317
S"<class 'gluon.html.UL'>"
p318
sS'IS_UPPER'
p319
S"<class 'gluon.validators.IS_UPPER'>"
p320
sS'xmlescape'
p321
S'<function xmlescape>'
p322
sS'IS_TIME'
p323
S"<class 'gluon.validators.IS_TIME'>"
p324
sS'os'
p325
S"<module 'os' from '/usr/lib64/python2.7/os.pyc'>"
p326
sS'compile_application'
p327
S'<function compile_application>'
p328
sS'RestrictedError'
p329
S"<class 'gluon.restricted.RestrictedError'>"
p330
sS'cache'
p331
S'<gluon.cache.Cache object>'
p332
sS'OPTION'
p333
S"<class 'gluon.html.OPTION'>"
p334
sS'TITLE'
p335
S"<class 'gluon.html.TITLE'>"
p336
sS'CRYPT'
p337
S"<class 'gluon.validators.CRYPT'>"
p338
sS'IS_EMPTY_OR'
p339
S"<class 'gluon.validators.IS_EMPTY_OR'>"
p340
sS'MARKMIN'
p341
S"<class 'gluon.html.MARKMIN'>"
p342
sS'web2py_uuid'
p343
S'<function web2py_uuid>'
p344
sS'sys'
p345
S"<module 'sys' (built-in)>"
p346
sS'apath'
p347
S'<function apath>'
p348
sS'MULTI_USER_MODE'
p349
g227
sS'STRONG'
p350
S"<class 'gluon.html.STRONG'>"
p351
sS'stateWidget'
p352
S'<function stateWidget>'
p353
sS'COL'
p354
S"<class 'gluon.html.COL'>"
p355
sS'SCRIPT'
p356
S"<class 'gluon.html.SCRIPT'>"
p357
sS'have_mercurial'
p358
g227
sS'is_mobile'
p359
g227
sS'EXPIRATION'
p360
S'3600'
p361
sS'findT'
p362
S'<function findT>'
p363
sS'TABLE'
p364
S"<class 'gluon.html.TABLE'>"
p365
sS'global_settings'
p366
S"<Storage {'debugging': False, 'is_pypy': False, ...+timestamp.2016.05.10.00.21.47', 'cmd_args': []}>"
p367
sS'IS_IPV4'
p368
S"<class 'gluon.validators.IS_IPV4'>"
p369
sS'IS_LENGTH'
p370
S"<class 'gluon.validators.IS_LENGTH'>"
p371
sS'IS_IPV6'
p372
S"<class 'gluon.validators.IS_IPV6'>"
p373
sS'TEXT_EDITOR'
p374
S"'amy'"
p375
sS'B'
S"<class 'gluon.html.B'>"
p376
sS'IMG'
p377
S"<class 'gluon.html.IMG'>"
p378
sS'SQLTABLE'
p379
S"<class 'gluon.sqlhtml.SQLTABLE'>"
p380
sS'IS_MATCH'
p381
S"<class 'gluon.validators.IS_MATCH'>"
p382
sS'untar'
p383
S'<function untar>'
p384
sS'IS_ALPHANUMERIC'
p385
S"<class 'gluon.validators.IS_ALPHANUMERIC'>"
p386
sS'cleanpath'
p387
S'<function cleanpath>'
p388
sS'socket'
p389
S"<module 'socket' from '/usr/lib64/python2.7/socket.pyc'>"
p390
sS'SPAN'
p391
S"<class 'gluon.html.SPAN'>"
p392
sS'IS_JSON'
p393
S"<class 'gluon.validators.IS_JSON'>"
p394
sS'IS_IPADDRESS'
p395
S"<class 'gluon.validators.IS_IPADDRESS'>"
p396
sS'fix_newlines'
p397
S'<function fix_newlines>'
p398
sS'dedent'
p399
S'<function dedent>'
p400
sS'IS_SLUG'
p401
S"<class 'gluon.validators.IS_SLUG'>"
p402
sS'CHECK_VERSION'
p403
g187
sS'BEAUTIFY'
p404
S"<class 'gluon.html.BEAUTIFY'>"
p405
sS'META'
p406
S"<class 'gluon.html.META'>"
p407
sS'md5_hash'
p408
S'<function md5_hash>'
p409
sS'update_all_languages'
p410
S'<function update_all_languages>'
p411
sS'XML'
p412
S"<class 'gluon.html.XML'>"
p413
sS'IS_DATE'
p414
S"<class 'gluon.validators.IS_DATE'>"
p415
sS'IS_EMAIL'
p416
S"<class 'gluon.validators.IS_EMAIL'>"
p417
sS'tar'
p418
S'<function tar>'
p419
sS'up'
p420
S'<function up>'
p421
sS'IS_NOT_EMPTY'
p422
S"<class 'gluon.validators.IS_NOT_EMPTY'>"
p423
sg56
S"<Storage {'_vars': <Storage {}>, 'function': 'us...e/yanesl/websites/foodbank/applications/admin/'}>"
p424
sS'TBODY'
p425
S"<class 'gluon.html.TBODY'>"
p426
sS'CAT'
p427
S"<class 'gluon.html.CAT'>"
p428
sS'Field'
p429
S"<class 'pydal.objects.Field'>"
p430
sS'H4'
p431
S"<class 'gluon.html.H4'>"
p432
sS'IS_LIST_OF_EMAILS'
p433
S"<class 'gluon.validators.IS_LIST_OF_EMAILS'>"
p434
sS'DIV'
p435
S"<class 'gluon.html.DIV'>"
p436
sS'shutil'
p437
S"<module 'shutil' from '/usr/lib64/python2.7/shutil.pyc'>"
p438
sS'LEGEND'
p439
S"<class 'gluon.html.LEGEND'>"
p440
sS'_config'
p441
S"{'__builtins__': {'ArithmeticError': <type 'exceptions.ArithmeticError'>, 'AssertionError': <type 'exceptions.AssertionError'>, 'AttributeError': <type 'exceptions.AttributeError'>, 'BaseException': <type 'exceptions.BaseException'>, 'BufferError': <type 'exceptions.BufferError'>, 'BytesWarning': <type 'exceptions.BytesWarning'>, 'DeprecationWarning': <type 'exceptions.DeprecationWarning'>, 'EOFError': <type 'exceptions.EOFError'>, 'Ellipsis': Ellipsis, 'EnvironmentError': <type 'exceptions.EnvironmentError'>, ...}, '__file__': 'Unknown', '__name__': '__restricted__', 'password': 'pbkdf2(1000,20,sha512)$8d6fccd3cf77e25d$476dda07bde4935ad981772e5628bdd093fc440c'}"
p442
sS'form'
p443
S"<lazyT 'Disabled'>"
p444
sS'COLGROUP'
p445
S"<class 'gluon.html.COLGROUP'>"
p446
sS'A_button'
p447
S'<function A_button>'
p448
sS'TT'
p449
S"<class 'gluon.html.TT'>"
p450
sS'TR'
p451
S"<class 'gluon.html.TR'>"
p452
sS'LI'
p453
S"<class 'gluon.html.LI'>"
p454
sS'listdir'
p455
S'<function listdir>'
p456
sS'failed_login_count'
p457
S'<function failed_login_count>'
p458
sS'TH'
p459
S"<class 'gluon.html.TH'>"
p460
sS'TD'
p461
S"<class 'gluon.html.TD'>"
p462
sS'IS_URL'
p463
S"<class 'gluon.validators.IS_URL'>"
p464
sS'A'
S"<class 'gluon.html.A'>"
p465
sS'stat'
p466
S"<module 'stat' from '/usr/lib64/python2.7/stat.pyc'>"
p467
sS'IS_DATETIME_IN_RANGE'
p468
S"<class 'gluon.validators.IS_DATETIME_IN_RANGE'>"
p469
sS'IS_IMAGE'
p470
S"<class 'gluon.validators.IS_IMAGE'>"
p471
sS'I'
S"<class 'gluon.html.I'>"
p472
sS'_name'
p473
S"<lazyT 'Debug'>"
p474
sS'regex_expose'
p475
S'<_sre.SRE_Pattern object>'
p476
sS'IS_NOT_IN_DB'
p477
S"<class 'gluon.validators.IS_NOT_IN_DB'>"
p478
sS'http_host'
p479
S"'127.0.0.1'"
p480
sg121
S"<Storage {'body': <cStringIO.StringO object at 0...at 0x7f6dc6369848>, 'view': 'default/user.html'}>"
p481
sS'THEAD'
p482
S"<class 'gluon.html.THEAD'>"
p483
sS'ANY_OF'
p484
S"<class 'gluon.validators.ANY_OF'>"
p485
sS'IS_NULL_OR'
p486
S"<class 'gluon.validators.IS_EMPTY_OR'>"
p487
sS'PLUGINS_APP'
p488
S"'http://web2py.com/plugins'"
p489
sS'_active'
p490
g227
sS'GAE_APPCFG'
p491
S"'/usr/local/bin/appcfg.py'"
p492
sS'IS_FLOAT_IN_RANGE'
p493
S"<class 'gluon.validators.IS_FLOAT_IN_RANGE'>"
p494
sS'IS_EXPR'
p495
S"<class 'gluon.validators.IS_EXPR'>"
p496
sS'EMAIL_SENDER'
p497
S"'professor@example.com'"
p498
sS'DAL'
p499
S"<class 'pydal.base.DAL'>"
p500
sS'IS_IN_SET'
p501
S"<class 'gluon.validators.IS_IN_SET'>"
p502
sS'TWITTER_HASH'
p503
S"'web2py'"
p504
sS'IS_UPLOAD_FILENAME'
p505
S"<class 'gluon.validators.IS_UPLOAD_FILENAME'>"
p506
sS'time'
p507
S"<module 'time' from '/usr/lib64/python2.7/lib-dynload/time.so'>"
p508
sS'regex_extend'
p509
S'<_sre.SRE_Pattern object>'
p510
sS'ASSIGNJS'
p511
S'<function ASSIGNJS>'
p512
sS're'
p513
S"<module 're' from '/usr/lib64/python2.7/re.pyc'>"
p514
sS'IS_DECIMAL_IN_RANGE'
p515
S"<class 'gluon.validators.IS_DECIMAL_IN_RANGE'>"
p516
sssS'traceback'
p517
S'Traceback (most recent call last):\n  File "/home/yanesl/websites/foodbank/gluon/restricted.py", line 227, in restricted\n    exec ccode in environment\n  File "/home/yanesl/websites/foodbank/applications/admin/views/default/user.html", line 50, in <module>\n    pass\nAttributeError: \'NoneType\' object has no attribute \'replace\'\n'
p518
s.