(dp1
S'output'
p2
S"<type 'exceptions.Exception'> Validation error, field:email <gluon.validators.IS_NOT_IN_DB object at 0x7fecf83d02d0>"
p3
sS'layer'
p4
S'/home/yanesl/websites/foodbank/applications/foodbank/controllers/default.py'
p5
sS'code'
p6
S'# -*- coding: utf-8 -*-\n# this file is released under public domain and you can use without limitations\n\n# -------------------------------------------------------------------------\n# This is a sample controller\n# - index is the default action of any application\n# - user is required for authentication and authorization\n# - download is for downloading files uploaded in the db (does streaming)\n# -------------------------------------------------------------------------\n\nimport json\n\ndef user():\n    """\n    exposes:\n    http://..../[app]/default/user/login\n    http://..../[app]/default/user/logout\n    http://..../[app]/default/user/register\n    http://..../[app]/default/user/profile\n    http://..../[app]/default/user/retrieve_password\n    http://..../[app]/default/user/change_password\n    http://..../[app]/default/user/bulk_register\n    use @auth.requires_login()\n        @auth.requires_membership(\'group name\')\n        @auth.requires_permission(\'read\',\'table name\',record_id)\n    to decorate functions that need access control\n    also notice there is http://..../[app]/appadmin/manage/auth to allow administrator to manage users\n    """\n    return dict(form=auth())\n\n\n@cache.action()\ndef download():\n    """\n    allows downloading of uploaded files\n    http://..../[app]/default/download/[filename]\n    """\n    return response.download(request, db)\n\n\ndef call():\n    """\n    exposes services. for example:\n    http://..../[app]/default/call/jsonrpc\n    decorate with @services.jsonrpc the functions to expose\n    supports xml, json, xmlrpc, jsonrpc, amfrpc, rss, csv\n    """\n    return service()\n\n\n@auth.requires_login()\ndef index():\n    """\n    example action using the internationalization operator T and flash\n    rendered by views/default/index.html or views/generic.html\n\n    if you need a simple wiki simply replace the two lines below with:\n    return auth.wiki()\n    """\n    response.flash = T("Hello World")\n    redirect(\'entrance\')\n    return dict(grid=SQLFORM.smartgrid(db.entrance, linked_tables=[\'product\'], user_signature=False))\n\n@auth.requires_login()\ndef category():\n    return dict(grid=SQLFORM.grid(db.category, user_signature=False))\n\n\n@auth.requires_login()\ndef unit():\n    return dict(grid=SQLFORM.grid(db.unit, user_signature=False))\n\n@auth.requires_login()\ndef retailer():\n    return dict(grid=SQLFORM.grid(db.retailer, user_signature=False))\n\n@auth.requires_login()\ndef view_entrance():\n    entrance_id = request.args(0,cast=int)\n    entrance = db.entrance(entrance_id)\n    products = db.product(db.product.from_entrance==entrance_id).select()\n    return locals()\n\n@auth.requires_login()\ndef entrance():\n    if \'view\' in request.args:\n        var = int(request.args[-1])\n        t = db(db.entrance.id==var).select(db.entrance.id)[0].id\n        db.product.from_entrance.readable = db.product.from_entrance.writable = False\n        db.product.from_entrance.default = t\n        form = SQLFORM(db.product).process()\n        productos = db(db.product.from_entrance==var).select()\n    entrance = SQLFORM.smartgrid(db.entrance, linked_tables=[\'product\'], user_signature=False)\n    return locals()\n\n\n@auth.requires_login()\ndef volunteer():\n    return dict(grid=SQLFORM.grid(db.volunteer, user_signature=False))\n\n\n@auth.requires_login()\ndef product():\n    return dict(grid=SQLFORM.smartgrid(db.product, linked_tables=[\'category\'], user_signature=False))\n\n\n@auth.requires_login()\ndef get_items():\n    val = json.loads(request.vars.array)\n    return db(db.product.from_entrance==int(val.from_entrance)).select()\n    #return db(db.product.from_arrival==int(request.vars.from_arrival)).select().json()\n\n\n@auth.requires_login()\ndef add_items():\n    return dict(form=SQLFORM(db.product), arrival_id=request.vars.from_arrival)\n\nresponse._vars=response._caller(user)\n'
p7
sS'snapshot'
p8
(dp9
S'exception'
p10
(dp11
S'__hash__'
p12
S"<method-wrapper '__hash__' of exceptions.Exception object>"
p13
sS'__setattr__'
p14
S"<method-wrapper '__setattr__' of exceptions.Exception object>"
p15
sS'__reduce_ex__'
p16
S'<built-in method __reduce_ex__ of exceptions.Exception object>'
p17
sS'__getslice__'
p18
S"<method-wrapper '__getslice__' of exceptions.Exception object>"
p19
sS'__getitem__'
p20
S"<method-wrapper '__getitem__' of exceptions.Exception object>"
p21
sS'__setstate__'
p22
S'<built-in method __setstate__ of exceptions.Exception object>'
p23
sS'args'
p24
S"('Validation error, field:email <gluon.validators.IS_NOT_IN_DB object at 0x7fecf83d02d0>',)"
p25
sS'__reduce__'
p26
S'<built-in method __reduce__ of exceptions.Exception object>'
p27
sS'__str__'
p28
S"<method-wrapper '__str__' of exceptions.Exception object>"
p29
sS'__format__'
p30
S'<built-in method __format__ of exceptions.Exception object>'
p31
sS'__getattribute__'
p32
S"<method-wrapper '__getattribute__' of exceptions.Exception object>"
p33
sS'__class__'
p34
S"<type 'exceptions.Exception'>"
p35
sS'__unicode__'
p36
S'<built-in method __unicode__ of exceptions.Exception object>'
p37
sS'__delattr__'
p38
S"<method-wrapper '__delattr__' of exceptions.Exception object>"
p39
sS'__subclasshook__'
p40
S'<built-in method __subclasshook__ of type object>'
p41
sS'__repr__'
p42
S"<method-wrapper '__repr__' of exceptions.Exception object>"
p43
sS'__dict__'
p44
S'{}'
p45
sS'__sizeof__'
p46
S'<built-in method __sizeof__ of exceptions.Exception object>'
p47
sS'__doc__'
p48
S"'Common base class for all non-exit exceptions.'"
p49
sS'__init__'
p50
S"<method-wrapper '__init__' of exceptions.Exception object>"
p51
sS'__new__'
p52
S'<built-in method __new__ of type object>'
p53
ssS'evalue'
p54
S'Validation error, field:email <gluon.validators.IS_NOT_IN_DB object at 0x7fecf83d02d0>'
p55
sS'request'
p56
cgluon.html
XML_unpickle
p57
(S's?a\x00\x00<div><table><tr><td style="font-weight:bold;vertical-align:top;">ajax</td><td style="vertical-align:top;">:</td><td><div>False</div></td></tr><tr><td style="font-weight:bold;vertical-align:top;">application</td><td style="vertical-align:top;">:</td><td><div>foodbank</div></td></tr><tr><td style="font-weight:bold;vertical-align:top;">args</td><td style="vertical-align:top;">:</td><td><div><table><tr><td><div>register</div></td></tr></table></div></td></tr><tr><td style="font-weight:bold;vertical-align:top;">cid</td><td style="vertical-align:top;">:</td><td><div>None</div></td></tr><tr><td style="font-weight:bold;vertical-align:top;">client</td><td style="vertical-align:top;">:</td><td><div>127.0.0.1</div></td></tr><tr><td style="font-weight:bold;vertical-align:top;">controller</td><td style="vertical-align:top;">:</td><td><div>default</div></td></tr><tr><td style="font-weight:bold;vertical-align:top;">cookies</td><td style="vertical-align:top;">:</td><td><div><table><tr><td style="font-weight:bold;vertical-align:top;">session_id_admin</td><td style="vertical-align:top;">:</td><td><div>127.0.0.1-f4450b22-ea76-4cc3-b57c-f0460ba4ab35<table><tr><td style="font-weight:bold;vertical-align:top;">comment</td><td style="vertical-align:top;">:</td><td><div></div></td></tr><tr><td style="font-weight:bold;vertical-align:top;">domain</td><td style="vertical-align:top;">:</td><td><div></div></td></tr><tr><td style="font-weight:bold;vertical-align:top;">expires</td><td style="vertical-align:top;">:</td><td><div></div></td></tr><tr><td style="font-weight:bold;vertical-align:top;">httponly</td><td style="vertical-align:top;">:</td><td><div></div></td></tr><tr><td style="font-weight:bold;vertical-align:top;">max-age</td><td style="vertical-align:top;">:</td><td><div></div></td></tr><tr><td style="font-weight:bold;vertical-align:top;">path</td><td style="vertical-align:top;">:</td><td><div></div></td></tr><tr><td style="font-weight:bold;vertical-align:top;">secure</td><td style="vertical-align:top;">:</td><td><div></div></td></tr><tr><td style="font-weight:bold;vertical-align:top;">version</td><td style="vertical-align:top;">:</td><td><div></div></td></tr></table></div></td></tr><tr><td style="font-weight:bold;vertical-align:top;">session_id_foodbank</td><td style="vertical-align:top;">:</td><td><div>127.0.0.1-21e3173f-f2fe-4ba2-9709-609af09d04c8<table><tr><td style="font-weight:bold;vertical-align:top;">comment</td><td style="vertical-align:top;">:</td><td><div></div></td></tr><tr><td style="font-weight:bold;vertical-align:top;">domain</td><td style="vertical-align:top;">:</td><td><div></div></td></tr><tr><td style="font-weight:bold;vertical-align:top;">expires</td><td style="vertical-align:top;">:</td><td><div></div></td></tr><tr><td style="font-weight:bold;vertical-align:top;">httponly</td><td style="vertical-align:top;">:</td><td><div></div></td></tr><tr><td style="font-weight:bold;vertical-align:top;">max-age</td><td style="vertical-align:top;">:</td><td><div></div></td></tr><tr><td style="font-weight:bold;vertical-align:top;">path</td><td style="vertical-align:top;">:</td><td><div></div></td></tr><tr><td style="font-weight:bold;vertical-align:top;">secure</td><td style="vertical-align:top;">:</td><td><div></div></td></tr><tr><td style="font-weight:bold;vertical-align:top;">version</td><td style="vertical-align:top;">:</td><td><div></div></td></tr></table></div></td></tr><tr><td style="font-weight:bold;vertical-align:top;">session_id_welcome</td><td style="vertical-align:top;">:</td><td><div>127.0.0.1-eeeb6b02-8608-40c5-a2b0-a3d240037ac7<table><tr><td style="font-weight:bold;vertical-align:top;">comment</td><td style="vertical-align:top;">:</td><td><div></div></td></tr><tr><td style="font-weight:bold;vertical-align:top;">domain</td><td style="vertical-align:top;">:</td><td><div></div></td></tr><tr><td style="font-weight:bold;vertical-align:top;">expires</td><td style="vertical-align:top;">:</td><td><div></div></td></tr><tr><td style="font-weight:bold;vertical-align:top;">httponly</td><td style="vertical-align:top;">:</td><td><div></div></td></tr><tr><td style="font-weight:bold;vertical-align:top;">max-age</td><td style="vertical-align:top;">:</td><td><div></div></td></tr><tr><td style="font-weight:bold;vertical-align:top;">path</td><td style="vertical-align:top;">:</td><td><div></div></td></tr><tr><td style="font-weight:bold;vertical-align:top;">secure</td><td style="vertical-align:top;">:</td><td><div></div></td></tr><tr><td style="font-weight:bold;vertical-align:top;">version</td><td style="vertical-align:top;">:</td><td><div></div></td></tr></table></div></td></tr></table></div></td></tr><tr><td style="font-weight:bold;vertical-align:top;">env</td><td style="vertical-align:top;">:</td><td><div><table><tr><td style="font-weight:bold;vertical-align:top;">CONTENT_LENGTH</td><td style="vertical-align:top;">:</td><td><div>1087</div></td></tr><tr><td style="font-weight:bold;vertical-align:top;">CONTENT_TYPE</td><td style="vertical-align:top;">:</td><td><div>multipart/form-data; boundary=---------------------------179084460412435772811762135616</div></td></tr><tr><td style="font-weight:bold;vertical-align:top;">HTTP_ACCEPT</td><td style="vertical-align:top;">:</td><td><div>text/html,application/xhtml+xml,application/xml;q=0.9,*/*;q=0.8</div></td></tr><tr><td style="font-weight:bold;vertical-align:top;">HTTP_ACCEPT_ENCODING</td><td style="vertical-align:top;">:</td><td><div>gzip, deflate</div></td></tr><tr><td style="font-weight:bold;vertical-align:top;">HTTP_ACCEPT_LANGUAGE</td><td style="vertical-align:top;">:</td><td><div>en-US,en;q=0.5</div></td></tr><tr><td style="font-weight:bold;vertical-align:top;">HTTP_CONNECTION</td><td style="vertical-align:top;">:</td><td><div>keep-alive</div></td></tr><tr><td style="font-weight:bold;vertical-align:top;">HTTP_CONTENT_LENGTH</td><td style="vertical-align:top;">:</td><td><div>1087</div></td></tr><tr><td style="font-weight:bold;vertical-align:top;">HTTP_CONTENT_TYPE</td><td style="vertical-align:top;">:</td><td><div>multipart/form-data; boundary=---------------------------179084460412435772811762135616</div></td></tr><tr><td style="font-weight:bold;vertical-align:top;">HTTP_COOKIE</td><td style="vertical-align:top;">:</td><td><div>session_id_welcome=127.0.0.1-eeeb6b02-8608-40c5-a2b0-a3d240037ac7; session_id_foodbank=127.0.0.1-21e3173f-f2fe-4ba2-9709-609af09d04c8; session_id_admin=127.0.0.1-f4450b22-ea76-4cc3-b57c-f0460ba4ab35</div></td></tr><tr><td style="font-weight:bold;vertical-align:top;">HTTP_HOST</td><td style="vertical-align:top;">:</td><td><div>127.0.0.1:8000</div></td></tr><tr><td style="font-weight:bold;vertical-align:top;">HTTP_REFERER</td><td style="vertical-align:top;">:</td><td><div>http://127.0.0.1:8000/foodbank/default/user/register?_next=%2Ffoodbank%2Fdefault%2Fentrance</div></td></tr><tr><td style="font-weight:bold;vertical-align:top;">HTTP_UPGRADE_INSECURE_REQUESTS</td><td style="vertical-align:top;">:</td><td><div>1</div></td></tr><tr><td style="font-weight:bold;vertical-align:top;">HTTP_USER_AGENT</td><td style="vertical-align:top;">:</td><td><div>Mozilla/5.0 (X11; Linux x86_64; rv:50.0) Gecko/20100101 Firefox/50.0</div></td></tr><tr><td style="font-weight:bold;vertical-align:top;">PATH_INFO</td><td style="vertical-align:top;">:</td><td><div>/foodbank/default/user/register</div></td></tr><tr><td style="font-weight:bold;vertical-align:top;">QUERY_STRING</td><td style="vertical-align:top;">:</td><td><div>_next=%2Ffoodbank%2Fdefault%2Fentrance</div></td></tr><tr><td style="font-weight:bold;vertical-align:top;">REMOTE_ADDR</td><td style="vertical-align:top;">:</td><td><div>127.0.0.1</div></td></tr><tr><td style="font-weight:bold;vertical-align:top;">REMOTE_PORT</td><td style="vertical-align:top;">:</td><td><div>56428</div></td></tr><tr><td style="font-weight:bold;vertical-align:top;">REQUEST_METHOD</td><td style="vertical-align:top;">:</td><td><div>POST</div></td></tr><tr><td style="font-weight:bold;vertical-align:top;">SCRIPT_NAME</td><td style="vertical-align:top;">:</td><td><div></div></td></tr><tr><td style="font-weight:bold;vertical-align:top;">SERVER_NAME</td><td style="vertical-align:top;">:</td><td><div>linux.suse</div></td></tr><tr><td style="font-weight:bold;vertical-align:top;">SERVER_PORT</td><td style="vertical-align:top;">:</td><td><div>8000</div></td></tr><tr><td style="font-weight:bold;vertical-align:top;">SERVER_PROTOCOL</td><td style="vertical-align:top;">:</td><td><div>HTTP/1.1</div></td></tr><tr><td style="font-weight:bold;vertical-align:top;">SERVER_SOFTWARE</td><td style="vertical-align:top;">:</td><td><div>Rocket 1.2.6</div></td></tr><tr><td style="font-weight:bold;vertical-align:top;">app_folders</td><td style="vertical-align:top;">:</td><td><div>set([&#x27;/home/yanesl/websites/foodbank/applications/welcome/&#x27;, &#x27;/home/yanesl/websites/foodbank/applications/foodbank/&#x27;])</div></td></tr><tr><td style="font-weight:bold;vertical-align:top;">applications_parent</td><td style="vertical-align:top;">:</td><td><div>/home/yanesl/websites/foodbank</div></td></tr><tr><td style="font-weight:bold;vertical-align:top;">cmd_args</td><td style="vertical-align:top;">:</td><td><div><table></table></div></td></tr><tr><td style="font-weight:bold;vertical-align:top;">cmd_options</td><td style="vertical-align:top;">:</td><td><div>&lt;Values at 0x7fed1c3a6128: {&#x27;verbose&#x27;: False, &#x27;ip&#x27;: &#x27;127.0.0.1&#x27;, &#x27;debuglevel&#x27;: 30, &#x27;with_scheduler&#x27;: False, &#x27;shutdown_timeout&#x27;: 5, &#x27;taskbar&#x27;: False, &#x27;with_coverage&#x27;: False, &#x27;pid_filename&#x27;: &#x27;httpserver.pid&#x27;, &#x27;maxthreads&#x27;: None, &#x27;softcron&#x27;: False, &#x27;server_name&#x27;: &#x27;linux.suse&#x27;, &#x27;bpython&#x27;: False, &#x27;nogui&#x27;: False, &#x27;port&#x27;: 8000, &#x27;print_errors&#x27;: False, &#x27;extcron&#x27;: False, &#x27;runcron&#x27;: False, &#x27;run_system_tests&#x27;: False, &#x27;test&#x27;: None, &#x27;folder&#x27;: &#x27;/home/yanesl/websites/foodbank&#x27;, &#x27;config&#x27;: &#x27;&#x27;, &#x27;minthreads&#x27;: None, &#x27;shell&#x27;: None, &#x27;run&#x27;: &#x27;&#x27;, &#x27;log_filename&#x27;: &#x27;httpserver.log&#x27;, &#x27;profiler_dir&#x27;: None, &#x27;args&#x27;: [&#x27;&#x27;], &#x27;socket_timeout&#x27;: 5, &#x27;ssl_ca_certificate&#x27;: None, &#x27;scheduler&#x27;: None, &#x27;interfaces&#x27;: None, &#x27;ssl_private_key&#x27;: &#x27;&#x27;, &#x27;gae&#x27;: None, &#x27;password&#x27;: &#x27;******&#x27;, &#x27;request_queue_size&#x27;: 5, &#x27;ssl_certificate&#x27;: &#x27;&#x27;, &#x27;cronjob&#x27;: False, &#x27;numthreads&#x27;: None, &#x27;quiet&#x27;: False, &#x27;import_models&#x27;: False, &#x27;timeout&#x27;: 10, &#x27;plain&#x27;: False, &#x27;nobanner&#x27;: False}&gt;</div></td></tr><tr><td style="font-weight:bold;vertical-align:top;">content_length</td><td style="vertical-align:top;">:</td><td><div>1087</div></td></tr><tr><td style="font-weight:bold;vertical-align:top;">content_type</td><td style="vertical-align:top;">:</td><td><div>multipart/form-data; boundary=---------------------------179084460412435772811762135616</div></td></tr><tr><td style="font-weight:bold;vertical-align:top;">db_sessions</td><td style="vertical-align:top;">:</td><td><div>set([])</div></td></tr><tr><td style="font-weight:bold;vertical-align:top;">debugging</td><td style="vertical-align:top;">:</td><td><div>False</div></td></tr><tr><td style="font-weight:bold;vertical-align:top;">gluon_parent</td><td style="vertical-align:top;">:</td><td><div>/home/yanesl/websites/foodbank</div></td></tr><tr><td style="font-weight:bold;vertical-align:top;">http_accept</td><td style="vertical-align:top;">:</td><td><div>text/html,application/xhtml+xml,application/xml;q=0.9,*/*;q=0.8</div></td></tr><tr><td style="font-weight:bold;vertical-align:top;">http_accept_encoding</td><td style="vertical-align:top;">:</td><td><div>gzip, deflate</div></td></tr><tr><td style="font-weight:bold;vertical-align:top;">http_accept_language</td><td style="vertical-align:top;">:</td><td><div>en-US,en;q=0.5</div></td></tr><tr><td style="font-weight:bold;vertical-align:top;">http_connection</td><td style="vertical-align:top;">:</td><td><div>keep-alive</div></td></tr><tr><td style="font-weight:bold;vertical-align:top;">http_content_length</td><td style="vertical-align:top;">:</td><td><div>1087</div></td></tr><tr><td style="font-weight:bold;vertical-align:top;">http_content_type</td><td style="vertical-align:top;">:</td><td><div>multipart/form-data; boundary=---------------------------179084460412435772811762135616</div></td></tr><tr><td style="font-weight:bold;vertical-align:top;">http_cookie</td><td style="vertical-align:top;">:</td><td><div>session_id_welcome=127.0.0.1-eeeb6b02-8608-40c5-a2b0-a3d240037ac7; session_id_foodbank=127.0.0.1-21e3173f-f2fe-4ba2-9709-609af09d04c8; session_id_admin=127.0.0.1-f4450b22-ea76-4cc3-b57c-f0460ba4ab35</div></td></tr><tr><td style="font-weight:bold;vertical-align:top;">http_host</td><td style="vertical-align:top;">:</td><td><div>127.0.0.1:8000</div></td></tr><tr><td style="font-weight:bold;vertical-align:top;">http_referer</td><td style="vertical-align:top;">:</td><td><div>http://127.0.0.1:8000/foodbank/default/user/register?_next=%2Ffoodbank%2Fdefault%2Fentrance</div></td></tr><tr><td style="font-weight:bold;vertical-align:top;">http_upgrade_insecure_requests</td><td style="vertical-align:top;">:</td><td><div>1</div></td></tr><tr><td style="font-weight:bold;vertical-align:top;">http_user_agent</td><td style="vertical-align:top;">:</td><td><div>Mozilla/5.0 (X11; Linux x86_64; rv:50.0) Gecko/20100101 Firefox/50.0</div></td></tr><tr><td style="font-weight:bold;vertical-align:top;">is_jython</td><td style="vertical-align:top;">:</td><td><div>False</div></td></tr><tr><td style="font-weight:bold;vertical-align:top;">is_pypy</td><td style="vertical-align:top;">:</td><td><div>False</div></td></tr><tr><td style="font-weight:bold;vertical-align:top;">is_source</td><td style="vertical-align:top;">:</td><td><div>True</div></td></tr><tr><td style="font-weight:bold;vertical-align:top;">local_hosts</td><td style="vertical-align:top;">:</td><td><div><table><tr><td><div>linux.suse</div></td></tr><tr><td><div>::1</div></td></tr><tr><td><div>::ffff:127.0.0.1</div></td></tr><tr><td><div>127.0.0.1</div></td></tr></table></div></td></tr><tr><td style="font-weight:bold;vertical-align:top;">path_info</td><td style="vertical-align:top;">:</td><td><div>/foodbank/default/user/register</div></td></tr><tr><td style="font-weight:bold;vertical-align:top;">query_string</td><td style="vertical-align:top;">:</td><td><div>_next=%2Ffoodbank%2Fdefault%2Fentrance</div></td></tr><tr><td style="font-weight:bold;vertical-align:top;">remote_addr</td><td style="vertical-align:top;">:</td><td><div>127.0.0.1</div></td></tr><tr><td style="font-weight:bold;vertical-align:top;">remote_port</td><td style="vertical-align:top;">:</td><td><div>56428</div></td></tr><tr><td style="font-weight:bold;vertical-align:top;">request_method</td><td style="vertical-align:top;">:</td><td><div>POST</div></td></tr><tr><td style="font-weight:bold;vertical-align:top;">request_uri</td><td style="vertical-align:top;">:</td><td><div>/foodbank/default/user/register?_next=%2Ffoodbank%2Fdefault%2Fentrance</div></td></tr><tr><td style="font-weight:bold;vertical-align:top;">script_name</td><td style="vertical-align:top;">:</td><td><div></div></td></tr><tr><td style="font-weight:bold;vertical-align:top;">server_name</td><td style="vertical-align:top;">:</td><td><div>linux.suse</div></td></tr><tr><td style="font-weight:bold;vertical-align:top;">server_port</td><td style="vertical-align:top;">:</td><td><div>8000</div></td></tr><tr><td style="font-weight:bold;vertical-align:top;">server_protocol</td><td style="vertical-align:top;">:</td><td><div>HTTP/1.1</div></td></tr><tr><td style="font-weight:bold;vertical-align:top;">server_software</td><td style="vertical-align:top;">:</td><td><div>Rocket 1.2.6</div></td></tr><tr><td style="font-weight:bold;vertical-align:top;">web2py_path</td><td style="vertical-align:top;">:</td><td><div>/home/yanesl/websites/foodbank</div></td></tr><tr><td style="font-weight:bold;vertical-align:top;">web2py_version</td><td style="vertical-align:top;">:</td><td><div>2.14.6-stable+timestamp.2016.05.10.00.21.47</div></td></tr><tr><td style="font-weight:bold;vertical-align:top;">wsgi.errors</td><td style="vertical-align:top;">:</td><td><div>&lt;open file &#x27;&lt;stderr&gt;&#x27;, mode &#x27;w&#x27; at 0x7fed25d3e1e0&gt;</div></td></tr><tr><td style="font-weight:bold;vertical-align:top;">wsgi.file_wrapper</td><td style="vertical-align:top;">:</td><td><div>&lt;class wsgiref.util.FileWrapper at 0x7fed1c3ce530&gt;</div></td></tr><tr><td style="font-weight:bold;vertical-align:top;">wsgi.input</td><td style="vertical-align:top;">:</td><td><div>&lt;socket._fileobject object at 0x7fecf87ec150&gt;</div></td></tr><tr><td style="font-weight:bold;vertical-align:top;">wsgi.multiprocess</td><td style="vertical-align:top;">:</td><td><div>False</div></td></tr><tr><td style="font-weight:bold;vertical-align:top;">wsgi.multithread</td><td style="vertical-align:top;">:</td><td><div>True</div></td></tr><tr><td style="font-weight:bold;vertical-align:top;">wsgi.run_once</td><td style="vertical-align:top;">:</td><td><div>False</div></td></tr><tr><td style="font-weight:bold;vertical-align:top;">wsgi.url_scheme</td><td style="vertical-align:top;">:</td><td><div>http</div></td></tr><tr><td style="font-weight:bold;vertical-align:top;">wsgi.version</td><td style="vertical-align:top;">:</td><td><div><table><tr><td><div>1</div></td></tr><tr><td><div>0</div></td></tr></table></div></td></tr><tr><td style="font-weight:bold;vertical-align:top;">wsgi_errors</td><td style="vertical-align:top;">:</td><td><div>&lt;open file &#x27;&lt;stderr&gt;&#x27;, mode &#x27;w&#x27; at 0x7fed25d3e1e0&gt;</div></td></tr><tr><td style="font-weight:bold;vertical-align:top;">wsgi_file_wrapper</td><td style="vertical-align:top;">:</td><td><div>&lt;class wsgiref.util.FileWrapper at 0x7fed1c3ce530&gt;</div></td></tr><tr><td style="font-weight:bold;vertical-align:top;">wsgi_input</td><td style="vertical-align:top;">:</td><td><div>&lt;socket._fileobject object at 0x7fecf87ec150&gt;</div></td></tr><tr><td style="font-weight:bold;vertical-align:top;">wsgi_multiprocess</td><td style="vertical-align:top;">:</td><td><div>False</div></td></tr><tr><td style="font-weight:bold;vertical-align:top;">wsgi_multithread</td><td style="vertical-align:top;">:</td><td><div>True</div></td></tr><tr><td style="font-weight:bold;vertical-align:top;">wsgi_run_once</td><td style="vertical-align:top;">:</td><td><div>False</div></td></tr><tr><td style="font-weight:bold;vertical-align:top;">wsgi_url_scheme</td><td style="vertical-align:top;">:</td><td><div>http</div></td></tr><tr><td style="font-weight:bold;vertical-align:top;">wsgi_version</td><td style="vertical-align:top;">:</td><td><div><table><tr><td><div>1</div></td></tr><tr><td><div>0</div></td></tr></table></div></td></tr></table></div></td></tr><tr><td style="font-weight:bold;vertical-align:top;">extension</td><td style="vertical-align:top;">:</td><td><div>html</div></td></tr><tr><td style="font-weight:bold;vertical-align:top;">folder</td><td style="vertical-align:top;">:</td><td><div>/home/yanesl/websites/foodbank/applications/foodbank/</div></td></tr><tr><td style="font-weight:bold;vertical-align:top;">function</td><td style="vertical-align:top;">:</td><td><div>user</div></td></tr><tr><td style="font-weight:bold;vertical-align:top;">global_settings</td><td style="vertical-align:top;">:</td><td><div><table><tr><td style="font-weight:bold;vertical-align:top;">app_folders</td><td style="vertical-align:top;">:</td><td><div>set([&#x27;/home/yanesl/websites/foodbank/applications/welcome/&#x27;, &#x27;/home/yanesl/websites/foodbank/applications/foodbank/&#x27;])</div></td></tr><tr><td style="font-weight:bold;vertical-align:top;">applications_parent</td><td style="vertical-align:top;">:</td><td><div>/home/yanesl/websites/foodbank</div></td></tr><tr><td style="font-weight:bold;vertical-align:top;">cmd_args</td><td style="vertical-align:top;">:</td><td><div><table></table></div></td></tr><tr><td style="font-weight:bold;vertical-align:top;">cmd_options</td><td style="vertical-align:top;">:</td><td><div>&lt;Values at 0x7fed1c3a6128: {&#x27;verbose&#x27;: False, &#x27;ip&#x27;: &#x27;127.0.0.1&#x27;, &#x27;debuglevel&#x27;: 30, &#x27;with_scheduler&#x27;: False, &#x27;shutdown_timeout&#x27;: 5, &#x27;taskbar&#x27;: False, &#x27;with_coverage&#x27;: False, &#x27;pid_filename&#x27;: &#x27;httpserver.pid&#x27;, &#x27;maxthreads&#x27;: None, &#x27;softcron&#x27;: False, &#x27;server_name&#x27;: &#x27;linux.suse&#x27;, &#x27;bpython&#x27;: False, &#x27;nogui&#x27;: False, &#x27;port&#x27;: 8000, &#x27;print_errors&#x27;: False, &#x27;extcron&#x27;: False, &#x27;runcron&#x27;: False, &#x27;run_system_tests&#x27;: False, &#x27;test&#x27;: None, &#x27;folder&#x27;: &#x27;/home/yanesl/websites/foodbank&#x27;, &#x27;config&#x27;: &#x27;&#x27;, &#x27;minthreads&#x27;: None, &#x27;shell&#x27;: None, &#x27;run&#x27;: &#x27;&#x27;, &#x27;log_filename&#x27;: &#x27;httpserver.log&#x27;, &#x27;profiler_dir&#x27;: None, &#x27;args&#x27;: [&#x27;&#x27;], &#x27;socket_timeout&#x27;: 5, &#x27;ssl_ca_certificate&#x27;: None, &#x27;scheduler&#x27;: None, &#x27;interfaces&#x27;: None, &#x27;ssl_private_key&#x27;: &#x27;&#x27;, &#x27;gae&#x27;: None, &#x27;password&#x27;: &#x27;******&#x27;, &#x27;request_queue_size&#x27;: 5, &#x27;ssl_certificate&#x27;: &#x27;&#x27;, &#x27;cronjob&#x27;: False, &#x27;numthreads&#x27;: None, &#x27;quiet&#x27;: False, &#x27;import_models&#x27;: False, &#x27;timeout&#x27;: 10, &#x27;plain&#x27;: False, &#x27;nobanner&#x27;: False}&gt;</div></td></tr><tr><td style="font-weight:bold;vertical-align:top;">db_sessions</td><td style="vertical-align:top;">:</td><td><div>set([])</div></td></tr><tr><td style="font-weight:bold;vertical-align:top;">debugging</td><td style="vertical-align:top;">:</td><td><div>False</div></td></tr><tr><td style="font-weight:bold;vertical-align:top;">gluon_parent</td><td style="vertical-align:top;">:</td><td><div>/home/yanesl/websites/foodbank</div></td></tr><tr><td style="font-weight:bold;vertical-align:top;">is_jython</td><td style="vertical-align:top;">:</td><td><div>False</div></td></tr><tr><td style="font-weight:bold;vertical-align:top;">is_pypy</td><td style="vertical-align:top;">:</td><td><div>False</div></td></tr><tr><td style="font-weight:bold;vertical-align:top;">is_source</td><td style="vertical-align:top;">:</td><td><div>True</div></td></tr><tr><td style="font-weight:bold;vertical-align:top;">local_hosts</td><td style="vertical-align:top;">:</td><td><div><table><tr><td><div>linux.suse</div></td></tr><tr><td><div>::1</div></td></tr><tr><td><div>::ffff:127.0.0.1</div></td></tr><tr><td><div>127.0.0.1</div></td></tr></table></div></td></tr><tr><td style="font-weight:bold;vertical-align:top;">web2py_version</td><td style="vertical-align:top;">:</td><td><div>2.14.6-stable+timestamp.2016.05.10.00.21.47</div></td></tr></table></div></td></tr><tr><td style="font-weight:bold;vertical-align:top;">is_https</td><td style="vertical-align:top;">:</td><td><div>False</div></td></tr><tr><td style="font-weight:bold;vertical-align:top;">is_local</td><td style="vertical-align:top;">:</td><td><div>True</div></td></tr><tr><td style="font-weight:bold;vertical-align:top;">is_restful</td><td style="vertical-align:top;">:</td><td><div>False</div></td></tr><tr><td style="font-weight:bold;vertical-align:top;">is_scheduler</td><td style="vertical-align:top;">:</td><td><div>False</div></td></tr><tr><td style="font-weight:bold;vertical-align:top;">is_shell</td><td style="vertical-align:top;">:</td><td><div>False</div></td></tr><tr><td style="font-weight:bold;vertical-align:top;">now</td><td style="vertical-align:top;">:</td><td><div>datetime.datetime(2017, 1, 20, 19, 2, 34, 802281)</div></td></tr><tr><td style="font-weight:bold;vertical-align:top;">raw_args</td><td style="vertical-align:top;">:</td><td><div>register</div></td></tr><tr><td style="font-weight:bold;vertical-align:top;">raw_extension</td><td style="vertical-align:top;">:</td><td><div>None</div></td></tr><tr><td style="font-weight:bold;vertical-align:top;">url</td><td style="vertical-align:top;">:</td><td><div>/foodbank/default/user/register</div></td></tr><tr><td style="font-weight:bold;vertical-align:top;">utcnow</td><td style="vertical-align:top;">:</td><td><div>datetime.datetime(2017, 1, 20, 19, 2, 34, 802297)</div></td></tr><tr><td style="font-weight:bold;vertical-align:top;">wsgi</td><td style="vertical-align:top;">:</td><td><div>&lt;gluon.main.LazyWSGI object at 0x7fecf867eb90&gt;</div></td></tr></table></div>'
tRp58
sS'frames'
p59
(lp60
(dp61
S'file'
p62
S'/home/yanesl/websites/foodbank/gluon/restricted.py'
p63
sS'dump'
p64
(dp65
S'environment'
p66
S"{'A': <class 'gluon.html.A'>, 'ANY_OF': <class 'gluon.validators.ANY_OF'>, 'ASSIGNJS': <function ASSIGNJS>, 'AppConfig': <function AppConfig>, 'Auth': <class 'gluon.tools.Auth'>, 'B': <class 'gluon.html.B'>, 'BEAUTIFY': <class 'gluon.html.BEAUTIFY'>, 'BODY': <class 'gluon.html.BODY'>, 'BR': <class 'gluon.html.BR'>, 'BUTTON': <class 'gluon.html.BUTTON'>, ...}"
p67
sS'ccode'
p68
S'<code object <module> at 0x7fecf829b0b0, file "/...ations/foodbank/controllers/default.py", line 11>'
p69
ssS'lnum'
p70
I227
sS'lines'
p71
(dp72
I224
S'            ccode = code'
p73
sI225
S'        else:'
p74
sI226
S'            ccode = compile2(code, layer)'
p75
sI227
S'        exec ccode in environment'
p76
sI228
S'    except HTTP:'
p77
sI229
S'        raise'
p78
sI230
S'    except RestrictedError:'
p79
sI231
S'        # do not encapsulate (obfuscate) the original RestrictedError'
p80
sI222
S'    try:'
p81
sI223
S'        if isinstance(code, types.CodeType):'
p82
ssS'call'
p83
S"(code='# -*- coding: utf-8 -*-\\n# this file is released ..._arrival)\\n\\nresponse._vars=response._caller(user)\\n', environment={'A': <class 'gluon.html.A'>, 'ANY_OF': <class 'gluon.validators.ANY_OF'>, 'ASSIGNJS': <function ASSIGNJS>, 'AppConfig': <function AppConfig>, 'Auth': <class 'gluon.tools.Auth'>, 'B': <class 'gluon.html.B'>, 'BEAUTIFY': <class 'gluon.html.BEAUTIFY'>, 'BODY': <class 'gluon.html.BODY'>, 'BR': <class 'gluon.html.BR'>, 'BUTTON': <class 'gluon.html.BUTTON'>, ...}, layer='/home/yanesl/websites/foodbank/applications/foodbank/controllers/default.py')"
p84
sS'func'
p85
S'restricted'
p86
sa(dp87
g62
S'/home/yanesl/websites/foodbank/applications/foodbank/controllers/default.py'
p88
sg64
(dp89
sg70
I118
sg71
(dp90
I107
S'@auth.requires_login()'
p91
sI108
S'def get_items():'
p92
sI109
S'    val = json.loads(request.vars.array)'
p93
sI110
S'    return db(db.product.from_entrance==int(val.from_entrance)).select()'
p94
sI111
S'    #return db(db.product.from_arrival==int(request.vars.from_arrival)).select().json()'
p95
sI112
S''
sI113
S''
sI114
S'@auth.requires_login()'
p96
sI115
S'def add_items():'
p97
sI116
S'    return dict(form=SQLFORM(db.product), arrival_id=request.vars.from_arrival)'
p98
ssg83
S'()'
p99
sg85
S'<module>'
p100
sa(dp101
g62
S'/home/yanesl/websites/foodbank/gluon/globals.py'
p102
sg64
(dp103
S'self'
p104
S'undefined'
p105
sS'f'
S'<function user>'
p106
ssg70
I417
sg71
(dp107
I416
S'        self._vars = None'
p108
sI417
S'        self._caller = lambda f: f()'
p109
sI418
S'        self._view_environment = None'
p110
sI419
S'        self._custom_commit = None'
p111
sI420
S'        self._custom_rollback = None'
p112
sI421
S"        self.generic_patterns = ['*']"
p113
sI412
S"        self.flash = ''            # used by the default view layout"
p114
sI413
S'        self.meta = Storage()      # used by web2py_ajax.html'
p115
sI414
S'        self.menu = []             # used by the default view layout'
p116
sI415
S'        self.files = []            # used by web2py_ajax.html'
p117
ssg83
S'(f=<function user>)'
p118
sg85
S'<lambda>'
p119
sa(dp120
g62
S'/home/yanesl/websites/foodbank/applications/foodbank/controllers/default.py'
p121
sg64
(dp122
S'global auth'
p123
S'<gluon.tools.Auth object>'
p124
sS'form'
p125
g105
sS'builtindict'
p126
S"<type 'dict'>"
p127
ssg70
I29
sg71
(dp128
I32
S'@cache.action()'
p129
sI33
S'def download():'
p130
sI24
S"        @auth.requires_membership('group name')"
p131
sI25
S"        @auth.requires_permission('read','table name',record_id)"
p132
sI26
S'    to decorate functions that need access control'
p133
sI27
S'    also notice there is http://..../[app]/appadmin/manage/auth to allow administrator to manage users'
p134
sI28
S'    """'
p135
sI29
S'    return dict(form=auth())'
p136
sI30
S''
sI31
S''
ssg83
S'()'
p137
sg85
S'user'
p138
sa(dp139
g62
S'/home/yanesl/websites/foodbank/gluon/tools.py'
p140
sg64
(dp141
S'self'
p142
S'<gluon.tools.Auth object>'
p143
sS'args'
p144
S"['register']"
p145
sS'builtingetattr'
p146
S'<built-in function getattr>'
p147
ssg70
I1941
sg71
(dp148
I1936
S"                       'impersonate', 'not_authorized', 'confirm_registration',"
p149
sI1937
S"                       'bulk_register', 'manage_tokens', 'jwt'):"
p150
sI1938
S"            if len(request.args) >= 2 and args[0] == 'impersonate':"
p151
sI1939
S'                return getattr(self, args[0])(request.args[1])'
p152
sI1940
S'            else:'
p153
sI1941
S'                return getattr(self, args[0])()'
p154
sI1942
S"        elif args[0] == 'cas' and not self.settings.cas_provider:"
p155
sI1943
S"            if args(1) == self.settings.cas_actions['login']:"
p156
sI1944
S'                return self.cas_login(version=2)'
p157
sI1945
S"            elif args(1) == self.settings.cas_actions['validate']:"
p158
ssg83
S'(self=<gluon.tools.Auth object>)'
p159
sg85
S'__call__'
p160
sa(dp161
g62
S'/home/yanesl/websites/foodbank/gluon/tools.py'
p162
sg64
(dp163
S'self'
p164
S'<gluon.tools.Auth object>'
p165
sS'hideerror'
p166
g105
sS'self.settings.hideerror'
p167
S'False'
p168
sS'self.settings'
p169
S"<Storage {'verify_email_onaccept': [], 'register...rieve_username_next': '/foodbank/default/index'}>"
p170
ssg70
I3351
sg71
(dp171
I3346
S''
sI3347
S'        table_user.registration_key.default = key'
p172
sI3348
S'        if form.accepts(request, session if self.csrf_prevention else None,'
p173
sI3349
S"                        formname='register',"
p174
sI3350
S'                        onvalidation=onvalidation,'
p175
sI3351
S'                        hideerror=self.settings.hideerror):'
p176
sI3352
S'            description = self.messages.group_description % form.vars'
p177
sI3353
S'            if self.settings.create_user_groups:'
p178
sI3354
S'                group_id = self.add_group(self.settings.create_user_groups % form.vars, description)'
p179
sI3355
S'                self.add_membership(group_id, form.vars.id)'
p180
ssg83
S"(self=<gluon.tools.Auth object>, next='/foodbank/default/entrance', onvalidation=[], onaccept=[], log='User %(id)s Registered')"
p181
sg85
S'register'
p182
sa(dp183
g62
S'/home/yanesl/websites/foodbank/gluon/sqlhtml.py'
p184
sg64
(dp185
S'kwargs'
p186
g45
ssg70
I1529
sg71
(dp187
I1524
S'            session,'
p188
sI1525
S'            formname,'
p189
sI1526
S'            keepvalues,'
p190
sI1527
S'            onvalidation,'
p191
sI1528
S'            hideerror=hideerror,'
p192
sI1529
S'            **kwargs'
p193
sI1530
S'        )'
p194
sI1531
S''
sI1532
S'        self.deleted = request_vars.get(self.FIELDNAME_REQUEST_DELETE, False)'
p195
sI1533
S''
ssg83
S"(self=<gluon.sqlhtml.SQLFORM object>, request_vars=<Storage {'first_name': 'admin', 'last_name': 'a...'password': 'luisjose', '_formname': 'register'}>, session=<Storage {'last_orderby': None, 'last_query': 'd...98674', '1839c586-295c-48cb-8ef0-bc975cfb2be1']}>, formname='register', keepvalues=False, onvalidation=[], dbio=True, hideerror=False, detect_record_change=False, **kwargs={})"
p196
sg85
S'accepts'
p197
sa(dp198
g62
S'/home/yanesl/websites/foodbank/gluon/html.py'
p199
sg64
(dp200
S'status'
p201
S'True'
p202
sS'self'
p203
S'<gluon.sqlhtml.SQLFORM object>'
p204
sS'self._traverse'
p205
S'<bound method SQLFORM._traverse of <gluon.sqlhtml.SQLFORM object>>'
p206
sS'hideerror'
p207
g168
ssg70
I2122
sg71
(dp208
I2117
S'        if status and session:'
p209
sI2118
S'            # check if editing a record that has been modified by the server'
p210
sI2119
S"            if hasattr(self, 'record_hash') and self.record_hash != formkey.split(':')[0]:"
p211
sI2120
S'                status = False'
p212
sI2121
S'                self.record_changed = changed = True'
p213
sI2122
S'        status = self._traverse(status, hideerror)'
p214
sI2123
S'        status = self.assert_status(status, request_vars)'
p215
sI2124
S'        if onvalidation:'
p216
sI2125
S'            if isinstance(onvalidation, dict):'
p217
sI2126
S"                onsuccess = onvalidation.get('onsuccess', None)"
p218
ssg83
S"(self=<gluon.sqlhtml.SQLFORM object>, request_vars=<Storage {'first_name': 'admin', 'last_name': 'a...assword': 'luisjose', 'email': 'admin@admin.ad'}>, session=<Storage {'last_orderby': None, 'last_query': 'd...98674', '1839c586-295c-48cb-8ef0-bc975cfb2be1']}>, formname='register', keepvalues=False, onvalidation=[], hideerror=False, **kwargs={})"
p219
sg85
g197
sa(dp220
g62
S'/home/yanesl/websites/foodbank/gluon/html.py'
p221
sg64
(dp222
S'status'
p223
g202
sS'newstatus'
p224
g202
sS'c'
S'<gluon.html.CAT object>'
p225
sS'hideerror'
p226
g168
sS'c._traverse'
p227
S'<bound method CAT._traverse of <gluon.html.CAT object>>'
p228
ssg70
I889
sg71
(dp229
I884
S'                c.latest = self.latest'
p230
sI885
S'                c.session = self.session'
p231
sI886
S'                c.formname = self.formname'
p232
sI887
S"                if not c.attributes.get('hideerror'):"
p233
sI888
S"                    c['hideerror'] = hideerror or self.attributes.get('hideerror')"
p234
sI889
S'                newstatus = c._traverse(status, hideerror) and newstatus'
p235
sI890
S''
sI891
S'        # for input, textarea, select, option'
p236
sI892
S"        # deal with 'value' and 'validation'"
p237
sI893
S''
ssg83
S'(self=<gluon.sqlhtml.SQLFORM object>, status=True, hideerror=False)'
p238
sg85
S'_traverse'
p239
sa(dp240
g62
S'/home/yanesl/websites/foodbank/gluon/html.py'
p241
sg64
(dp242
S'status'
p243
g202
sS'newstatus'
p244
g202
sS'c'
S'<gluon.html.DIV object>'
p245
sS'hideerror'
p246
g168
sS'c._traverse'
p247
S'<bound method DIV._traverse of <gluon.html.DIV object>>'
p248
ssg70
I889
sg71
(dp249
I884
S'                c.latest = self.latest'
p250
sI885
S'                c.session = self.session'
p251
sI886
S'                c.formname = self.formname'
p252
sI887
S"                if not c.attributes.get('hideerror'):"
p253
sI888
S"                    c['hideerror'] = hideerror or self.attributes.get('hideerror')"
p254
sI889
S'                newstatus = c._traverse(status, hideerror) and newstatus'
p255
sI890
S''
sI891
S'        # for input, textarea, select, option'
p256
sI892
S"        # deal with 'value' and 'validation'"
p257
sI893
S''
ssg83
S'(self=<gluon.html.CAT object>, status=True, hideerror=False)'
p258
sg85
g239
sa(dp259
g62
S'/home/yanesl/websites/foodbank/gluon/html.py'
p260
sg64
(dp261
S'status'
p262
g202
sS'newstatus'
p263
g202
sS'c'
S'<gluon.html.DIV object>'
p264
sS'hideerror'
p265
g168
sS'c._traverse'
p266
S'<bound method DIV._traverse of <gluon.html.DIV object>>'
p267
ssg70
I889
sg71
(dp268
I884
S'                c.latest = self.latest'
p269
sI885
S'                c.session = self.session'
p270
sI886
S'                c.formname = self.formname'
p271
sI887
S"                if not c.attributes.get('hideerror'):"
p272
sI888
S"                    c['hideerror'] = hideerror or self.attributes.get('hideerror')"
p273
sI889
S'                newstatus = c._traverse(status, hideerror) and newstatus'
p274
sI890
S''
sI891
S'        # for input, textarea, select, option'
p275
sI892
S"        # deal with 'value' and 'validation'"
p276
sI893
S''
ssg83
S'(self=<gluon.html.DIV object>, status=True, hideerror=False)'
p277
sg85
g239
sa(dp278
g62
S'/home/yanesl/websites/foodbank/gluon/html.py'
p279
sg64
(dp280
S'status'
p281
g202
sS'newstatus'
p282
g202
sS'c'
S'<gluon.html.INPUT object>'
p283
sS'hideerror'
p284
g168
sS'c._traverse'
p285
S'<bound method INPUT._traverse of <gluon.html.INPUT object>>'
p286
ssg70
I889
sg71
(dp287
I884
S'                c.latest = self.latest'
p288
sI885
S'                c.session = self.session'
p289
sI886
S'                c.formname = self.formname'
p290
sI887
S"                if not c.attributes.get('hideerror'):"
p291
sI888
S"                    c['hideerror'] = hideerror or self.attributes.get('hideerror')"
p292
sI889
S'                newstatus = c._traverse(status, hideerror) and newstatus'
p293
sI890
S''
sI891
S'        # for input, textarea, select, option'
p294
sI892
S"        # deal with 'value' and 'validation'"
p295
sI893
S''
ssg83
S'(self=<gluon.html.DIV object>, status=True, hideerror=False)'
p296
sg85
g239
sa(dp297
g62
S'/home/yanesl/websites/foodbank/gluon/html.py'
p298
sg64
(dp299
S'newstatus'
p300
g202
sS'self'
p301
S'<gluon.html.INPUT object>'
p302
sS'self._validate'
p303
S'<bound method INPUT._validate of <gluon.html.INPUT object>>'
p304
ssg70
I896
sg71
(dp305
I896
S'            newstatus = self._validate()'
p306
sI897
S'            self._postprocessing()'
p307
sI898
S"        elif 'old_value' in self.attributes:"
p308
sI899
S"            self['value'] = self['old_value']"
p309
sI900
S'            self._postprocessing()'
p310
sI891
S'        # for input, textarea, select, option'
p311
sI892
S"        # deal with 'value' and 'validation'"
p312
sI893
S''
sI894
S"        name = self['_name']"
p313
sI895
S'        if newstatus:'
p314
ssg83
S'(self=<gluon.html.INPUT object>, status=True, hideerror=False)'
p315
sg85
g239
sa(dp316
g62
S'/home/yanesl/websites/foodbank/gluon/html.py'
p317
sg64
(dp318
S'builtinException'
p319
S"<type 'exceptions.Exception'>"
p320
sS'msg'
p321
S"'Validation error, field:email <gluon.validators.IS_NOT_IN_DB object at 0x7fecf83d02d0>'"
p322
ssg70
I1867
sg71
(dp323
I1862
S'                    (value, errors) = validator(value)'
p324
sI1863
S'                except:'
p325
sI1864
S'                    import traceback'
p326
sI1865
S'                    print traceback.format_exc()'
p327
sI1866
S'                    msg = "Validation error, field:%s %s" % (name,validator)'
p328
sI1867
S'                    raise Exception(msg)'
p329
sI1868
S'                if errors is not None:'
p330
sI1869
S'                    self.vars[name] = value'
p331
sI1870
S'                    self.errors[name] = errors'
p332
sI1871
S'                    break'
p333
ssg83
S'(self=<gluon.html.INPUT object>)'
p334
sg85
S'_validate'
p335
sasS'pyver'
p336
S'Python 2.7.12: /usr/bin/python (prefix: /usr)'
p337
sS'session'
p338
g57
(S's\xb7\x01\x00\x00<div><table><tr><td style="font-weight:bold;vertical-align:top;">flash</td><td style="vertical-align:top;">:</td><td><div></div></td></tr><tr><td style="font-weight:bold;vertical-align:top;">last_orderby</td><td style="vertical-align:top;">:</td><td><div>None</div></td></tr><tr><td style="font-weight:bold;vertical-align:top;">last_query</td><td style="vertical-align:top;">:</td><td><div>db.category.id&gt;0</div></td></tr></table></div>'
tRp339
sS'etype'
p340
S"<type 'exceptions.Exception'>"
p341
sS'date'
p342
S'Fri Jan 20 19:02:35 2017'
p343
sS'response'
p344
g57
(S'sz?\x00\x00<div><table><tr><td style="font-weight:bold;vertical-align:top;">body</td><td style="vertical-align:top;">:</td><td><div>&lt;cStringIO.StringO object at 0x7fecf82c1228&gt;</div></td></tr><tr><td style="font-weight:bold;vertical-align:top;">cookies</td><td style="vertical-align:top;">:</td><td><div><table><tr><td style="font-weight:bold;vertical-align:top;">session_id_foodbank</td><td style="vertical-align:top;">:</td><td><div>127.0.0.1-21e3173f-f2fe-4ba2-9709-609af09d04c8<table><tr><td style="font-weight:bold;vertical-align:top;">comment</td><td style="vertical-align:top;">:</td><td><div></div></td></tr><tr><td style="font-weight:bold;vertical-align:top;">domain</td><td style="vertical-align:top;">:</td><td><div></div></td></tr><tr><td style="font-weight:bold;vertical-align:top;">expires</td><td style="vertical-align:top;">:</td><td><div></div></td></tr><tr><td style="font-weight:bold;vertical-align:top;">httponly</td><td style="vertical-align:top;">:</td><td><div></div></td></tr><tr><td style="font-weight:bold;vertical-align:top;">max-age</td><td style="vertical-align:top;">:</td><td><div></div></td></tr><tr><td style="font-weight:bold;vertical-align:top;">path</td><td style="vertical-align:top;">:</td><td><div>/</div></td></tr><tr><td style="font-weight:bold;vertical-align:top;">secure</td><td style="vertical-align:top;">:</td><td><div></div></td></tr><tr><td style="font-weight:bold;vertical-align:top;">version</td><td style="vertical-align:top;">:</td><td><div></div></td></tr></table></div></td></tr></table></div></td></tr><tr><td style="font-weight:bold;vertical-align:top;">delimiters</td><td style="vertical-align:top;">:</td><td><div><table><tr><td><div>{{</div></td></tr><tr><td><div>}}</div></td></tr></table></div></td></tr><tr><td style="font-weight:bold;vertical-align:top;">files</td><td style="vertical-align:top;">:</td><td><div><table></table></div></td></tr><tr><td style="font-weight:bold;vertical-align:top;">flash</td><td style="vertical-align:top;">:</td><td><div></div></td></tr><tr><td style="font-weight:bold;vertical-align:top;">form_label_separator</td><td style="vertical-align:top;">:</td><td><div></div></td></tr><tr><td style="font-weight:bold;vertical-align:top;">formstyle</td><td style="vertical-align:top;">:</td><td><div>bootstrap3_inline</div></td></tr><tr><td style="font-weight:bold;vertical-align:top;">generic_patterns</td><td style="vertical-align:top;">:</td><td><div><table><tr><td><div>*</div></td></tr></table></div></td></tr><tr><td style="font-weight:bold;vertical-align:top;">google_analytics_id</td><td style="vertical-align:top;">:</td><td><div>None</div></td></tr><tr><td style="font-weight:bold;vertical-align:top;">headers</td><td style="vertical-align:top;">:</td><td><div><table><tr><td style="font-weight:bold;vertical-align:top;">X-Powered-By</td><td style="vertical-align:top;">:</td><td><div>web2py</div></td></tr></table></div></td></tr><tr><td style="font-weight:bold;vertical-align:top;">logo</td><td style="vertical-align:top;">:</td><td><div><a class="navbar-brand" href="http://www.web2py.com/" id="web2py-logo"><b>web<span>2</span>py</b>&trade;&nbsp;</a></div></td></tr><tr><td style="font-weight:bold;vertical-align:top;">menu</td><td style="vertical-align:top;">:</td><td><div><table><tr><td><div><table><tr><td><div>Home</div></td></tr><tr><td><div>False</div></td></tr><tr><td><div>/foodbank/default/index</div></td></tr><tr><td><div><table></table></div></td></tr></table></div></td></tr><tr><td><div><table><tr><td><div>My Sites</div></td></tr><tr><td><div>False</div></td></tr><tr><td><div>/admin/default/site</div></td></tr></table></div></td></tr><tr><td><div><table><tr><td><div>This App</div></td></tr><tr><td><div>False</div></td></tr><tr><td><div>#</div></td></tr><tr><td><div><table><tr><td><div><table><tr><td><div>Design</div></td></tr><tr><td><div>False</div></td></tr><tr><td><div>/admin/default/design/foodbank</div></td></tr></table></div></td></tr><tr><td><div><li class="divider"></li></div></td></tr><tr><td><div><table><tr><td><div>Controller</div></td></tr><tr><td><div>False</div></td></tr><tr><td><div>/admin/default/edit/foodbank/controllers/default.py</div></td></tr></table></div></td></tr><tr><td><div><table><tr><td><div>View</div></td></tr><tr><td><div>False</div></td></tr><tr><td><div>/admin/default/edit/foodbank/views/default/user.html</div></td></tr></table></div></td></tr><tr><td><div><table><tr><td><div>DB Model</div></td></tr><tr><td><div>False</div></td></tr><tr><td><div>/admin/default/edit/foodbank/models/db.py</div></td></tr></table></div></td></tr><tr><td><div><table><tr><td><div>Menu Model</div></td></tr><tr><td><div>False</div></td></tr><tr><td><div>/admin/default/edit/foodbank/models/menu.py</div></td></tr></table></div></td></tr><tr><td><div><table><tr><td><div>Config.ini</div></td></tr><tr><td><div>False</div></td></tr><tr><td><div>/admin/default/edit/foodbank/private/appconfig.ini</div></td></tr></table></div></td></tr><tr><td><div><table><tr><td><div>Layout</div></td></tr><tr><td><div>False</div></td></tr><tr><td><div>/admin/default/edit/foodbank/views/layout.html</div></td></tr></table></div></td></tr><tr><td><div><table><tr><td><div>Stylesheet</div></td></tr><tr><td><div>False</div></td></tr><tr><td><div>/admin/default/edit/foodbank/static/css/web2py-bootstrap3.css</div></td></tr></table></div></td></tr><tr><td><div><table><tr><td><div>Database</div></td></tr><tr><td><div>False</div></td></tr><tr><td><div>/foodbank/appadmin/index</div></td></tr></table></div></td></tr><tr><td><div><table><tr><td><div>Errors</div></td></tr><tr><td><div>False</div></td></tr><tr><td><div>/admin/default/errors/foodbank</div></td></tr></table></div></td></tr><tr><td><div><table><tr><td><div>About</div></td></tr><tr><td><div>False</div></td></tr><tr><td><div>/admin/default/about/foodbank</div></td></tr></table></div></td></tr></table></div></td></tr></table></div></td></tr><tr><td><div><table><tr><td><div>web2py.com</div></td></tr><tr><td><div>False</div></td></tr><tr><td><div>#</div></td></tr><tr><td><div><table><tr><td><div><table><tr><td><div>Download</div></td></tr><tr><td><div>False</div></td></tr><tr><td><div>http://www.web2py.com/examples/default/download</div></td></tr></table></div></td></tr><tr><td><div><table><tr><td><div>Support</div></td></tr><tr><td><div>False</div></td></tr><tr><td><div>http://www.web2py.com/examples/default/support</div></td></tr></table></div></td></tr><tr><td><div><table><tr><td><div>Demo</div></td></tr><tr><td><div>False</div></td></tr><tr><td><div>http://web2py.com/demo_admin</div></td></tr></table></div></td></tr><tr><td><div><table><tr><td><div>Quick Examples</div></td></tr><tr><td><div>False</div></td></tr><tr><td><div>http://web2py.com/examples/default/examples</div></td></tr></table></div></td></tr><tr><td><div><table><tr><td><div>FAQ</div></td></tr><tr><td><div>False</div></td></tr><tr><td><div>http://web2py.com/AlterEgo</div></td></tr></table></div></td></tr><tr><td><div><table><tr><td><div>Videos</div></td></tr><tr><td><div>False</div></td></tr><tr><td><div>http://www.web2py.com/examples/default/videos/</div></td></tr></table></div></td></tr><tr><td><div><table><tr><td><div>Free Applications</div></td></tr><tr><td><div>False</div></td></tr><tr><td><div>http://web2py.com/appliances</div></td></tr></table></div></td></tr><tr><td><div><table><tr><td><div>Plugins</div></td></tr><tr><td><div>False</div></td></tr><tr><td><div>http://web2py.com/plugins</div></td></tr></table></div></td></tr><tr><td><div><table><tr><td><div>Recipes</div></td></tr><tr><td><div>False</div></td></tr><tr><td><div>http://web2pyslices.com/</div></td></tr></table></div></td></tr></table></div></td></tr></table></div></td></tr><tr><td><div><table><tr><td><div>Documentation</div></td></tr><tr><td><div>False</div></td></tr><tr><td><div>#</div></td></tr><tr><td><div><table><tr><td><div><table><tr><td><div>Online book</div></td></tr><tr><td><div>False</div></td></tr><tr><td><div>http://www.web2py.com/book</div></td></tr></table></div></td></tr><tr><td><div><li class="divider"></li></div></td></tr><tr><td><div><table><tr><td><div>Preface</div></td></tr><tr><td><div>False</div></td></tr><tr><td><div>http://www.web2py.com/book/default/chapter/00</div></td></tr></table></div></td></tr><tr><td><div><table><tr><td><div>Introduction</div></td></tr><tr><td><div>False</div></td></tr><tr><td><div>http://www.web2py.com/book/default/chapter/01</div></td></tr></table></div></td></tr><tr><td><div><table><tr><td><div>Python</div></td></tr><tr><td><div>False</div></td></tr><tr><td><div>http://www.web2py.com/book/default/chapter/02</div></td></tr></table></div></td></tr><tr><td><div><table><tr><td><div>Overview</div></td></tr><tr><td><div>False</div></td></tr><tr><td><div>http://www.web2py.com/book/default/chapter/03</div></td></tr></table></div></td></tr><tr><td><div><table><tr><td><div>The Core</div></td></tr><tr><td><div>False</div></td></tr><tr><td><div>http://www.web2py.com/book/default/chapter/04</div></td></tr></table></div></td></tr><tr><td><div><table><tr><td><div>The Views</div></td></tr><tr><td><div>False</div></td></tr><tr><td><div>http://www.web2py.com/book/default/chapter/05</div></td></tr></table></div></td></tr><tr><td><div><table><tr><td><div>Database</div></td></tr><tr><td><div>False</div></td></tr><tr><td><div>http://www.web2py.com/book/default/chapter/06</div></td></tr></table></div></td></tr><tr><td><div><table><tr><td><div>Forms and Validators</div></td></tr><tr><td><div>False</div></td></tr><tr><td><div>http://www.web2py.com/book/default/chapter/07</div></td></tr></table></div></td></tr><tr><td><div><table><tr><td><div>Email and SMS</div></td></tr><tr><td><div>False</div></td></tr><tr><td><div>http://www.web2py.com/book/default/chapter/08</div></td></tr></table></div></td></tr><tr><td><div><table><tr><td><div>Access Control</div></td></tr><tr><td><div>False</div></td></tr><tr><td><div>http://www.web2py.com/book/default/chapter/09</div></td></tr></table></div></td></tr><tr><td><div><table><tr><td><div>Services</div></td></tr><tr><td><div>False</div></td></tr><tr><td><div>http://www.web2py.com/book/default/chapter/10</div></td></tr></table></div></td></tr><tr><td><div><table><tr><td><div>Ajax Recipes</div></td></tr><tr><td><div>False</div></td></tr><tr><td><div>http://www.web2py.com/book/default/chapter/11</div></td></tr></table></div></td></tr><tr><td><div><table><tr><td><div>Components and Plugins</div></td></tr><tr><td><div>False</div></td></tr><tr><td><div>http://www.web2py.com/book/default/chapter/12</div></td></tr></table></div></td></tr><tr><td><div><table><tr><td><div>Deployment Recipes</div></td></tr><tr><td><div>False</div></td></tr><tr><td><div>http://www.web2py.com/book/default/chapter/13</div></td></tr></table></div></td></tr><tr><td><div><table><tr><td><div>Other Recipes</div></td></tr><tr><td><div>False</div></td></tr><tr><td><div>http://www.web2py.com/book/default/chapter/14</div></td></tr></table></div></td></tr><tr><td><div><table><tr><td><div>Helping web2py</div></td></tr><tr><td><div>False</div></td></tr><tr><td><div>http://www.web2py.com/book/default/chapter/15</div></td></tr></table></div></td></tr><tr><td><div><table><tr><td><div>Buy web2py\'s book</div></td></tr><tr><td><div>False</div></td></tr><tr><td><div>http://stores.lulu.com/web2py</div></td></tr></table></div></td></tr></table></div></td></tr></table></div></td></tr><tr><td><div><table><tr><td><div>Community</div></td></tr><tr><td><div>False</div></td></tr><tr><td><div>None</div></td></tr><tr><td><div><table><tr><td><div><table><tr><td><div>Groups</div></td></tr><tr><td><div>False</div></td></tr><tr><td><div>http://www.web2py.com/examples/default/usergroups</div></td></tr></table></div></td></tr><tr><td><div><table><tr><td><div>Twitter</div></td></tr><tr><td><div>False</div></td></tr><tr><td><div>http://twitter.com/web2py</div></td></tr></table></div></td></tr><tr><td><div><table><tr><td><div>Live Chat</div></td></tr><tr><td><div>False</div></td></tr><tr><td><div>http://webchat.freenode.net/?channels=web2py</div></td></tr></table></div></td></tr></table></div></td></tr></table></div></td></tr></table></div></td></tr><tr><td style="font-weight:bold;vertical-align:top;">meta</td><td style="vertical-align:top;">:</td><td><div><table><tr><td style="font-weight:bold;vertical-align:top;">author</td><td style="vertical-align:top;">:</td><td><div>Your Name &lt;you@example.com&gt;</div></td></tr><tr><td style="font-weight:bold;vertical-align:top;">description</td><td style="vertical-align:top;">:</td><td><div>a cool new app</div></td></tr><tr><td style="font-weight:bold;vertical-align:top;">generator</td><td style="vertical-align:top;">:</td><td><div>Web2py Web Framework</div></td></tr><tr><td style="font-weight:bold;vertical-align:top;">keywords</td><td style="vertical-align:top;">:</td><td><div><table><tr><td><div>web2py</div></td></tr><tr><td><div>python</div></td></tr><tr><td><div>framework</div></td></tr></table></div></td></tr></table></div></td></tr><tr><td style="font-weight:bold;vertical-align:top;">models_to_run</td><td style="vertical-align:top;">:</td><td><div><table><tr><td><div>^\\w+\\.py$</div></td></tr><tr><td><div>^default/\\w+\\.py$</div></td></tr><tr><td><div>^default/user/\\w+\\.py$</div></td></tr></table></div></td></tr><tr><td style="font-weight:bold;vertical-align:top;">postprocessing</td><td style="vertical-align:top;">:</td><td><div><table></table></div></td></tr><tr><td style="font-weight:bold;vertical-align:top;">session_client</td><td style="vertical-align:top;">:</td><td><div>127.0.0.1</div></td></tr><tr><td style="font-weight:bold;vertical-align:top;">session_cookie_compression_level</td><td style="vertical-align:top;">:</td><td><div>None</div></td></tr><tr><td style="font-weight:bold;vertical-align:top;">session_cookie_expires</td><td style="vertical-align:top;">:</td><td><div>None</div></td></tr><tr><td style="font-weight:bold;vertical-align:top;">session_data_name</td><td style="vertical-align:top;">:</td><td><div>session_data_foodbank</div></td></tr><tr><td style="font-weight:bold;vertical-align:top;">session_file</td><td style="vertical-align:top;">:</td><td><div>&lt;open file &#x27;/home/yanesl/websites/foodbank/applications/foodbank/sessions/1a9/1cb/127.0.0.1-21e3173f-f2fe-4ba2-9709-609af09d04c8&#x27;, mode &#x27;rb+&#x27; at 0x7fecf87f2300&gt;</div></td></tr><tr><td style="font-weight:bold;vertical-align:top;">session_filename</td><td style="vertical-align:top;">:</td><td><div>/home/yanesl/websites/foodbank/applications/foodbank/sessions/127.0.0.1-21e3173f-f2fe-4ba2-9709-609af09d04c8</div></td></tr><tr><td style="font-weight:bold;vertical-align:top;">session_hash</td><td style="vertical-align:top;">:</td><td><div>f63fd5d723743ca94681bad468362491</div></td></tr><tr><td style="font-weight:bold;vertical-align:top;">session_id</td><td style="vertical-align:top;">:</td><td><div>127.0.0.1-21e3173f-f2fe-4ba2-9709-609af09d04c8</div></td></tr><tr><td style="font-weight:bold;vertical-align:top;">session_id_name</td><td style="vertical-align:top;">:</td><td><div>session_id_foodbank</div></td></tr><tr><td style="font-weight:bold;vertical-align:top;">session_locked</td><td style="vertical-align:top;">:</td><td><div>True</div></td></tr><tr><td style="font-weight:bold;vertical-align:top;">session_masterapp</td><td style="vertical-align:top;">:</td><td><div>foodbank</div></td></tr><tr><td style="font-weight:bold;vertical-align:top;">session_new</td><td style="vertical-align:top;">:</td><td><div>False</div></td></tr><tr><td style="font-weight:bold;vertical-align:top;">session_storage_type</td><td style="vertical-align:top;">:</td><td><div>file</div></td></tr><tr><td style="font-weight:bold;vertical-align:top;">status</td><td style="vertical-align:top;">:</td><td><div>200</div></td></tr><tr><td style="font-weight:bold;vertical-align:top;">subtitle</td><td style="vertical-align:top;">:</td><td><div></div></td></tr><tr><td style="font-weight:bold;vertical-align:top;">title</td><td style="vertical-align:top;">:</td><td><div>Foodbank</div></td></tr><tr><td style="font-weight:bold;vertical-align:top;">view</td><td style="vertical-align:top;">:</td><td><div>default/user.html</div></td></tr></table></div>'
tRp345
sS'locals'
p346
(dp347
S'errors'
p348
S'None'
p349
sS'name'
p350
S"'email'"
p351
sS'k'
S'1'
sS'traceback'
p352
S"<module 'traceback' from '/usr/lib64/python2.7/traceback.pyc'>"
p353
sS'value'
p354
S"'admin@admin.ad'"
p355
sS'validator'
p356
S'<gluon.validators.IS_NOT_IN_DB object>'
p357
sS'msg'
p358
S"'Validation error, field:email <gluon.validators.IS_NOT_IN_DB object at 0x7fecf83d02d0>'"
p359
sS'request_vars_get'
p360
S'<built-in method get of Storage object>'
p361
sS'requires'
p362
S'[<gluon.validators.IS_EMAIL object>, <gluon.validators.IS_NOT_IN_DB object>]'
p363
sS'self'
p364
S'<gluon.html.INPUT object>'
p365
sssg352
S'Traceback (most recent call last):\n  File "/home/yanesl/websites/foodbank/gluon/restricted.py", line 227, in restricted\n    exec ccode in environment\n  File "/home/yanesl/websites/foodbank/applications/foodbank/controllers/default.py", line 118, in <module>\n  File "/home/yanesl/websites/foodbank/gluon/globals.py", line 417, in <lambda>\n    self._caller = lambda f: f()\n  File "/home/yanesl/websites/foodbank/applications/foodbank/controllers/default.py", line 29, in user\n    return dict(form=auth())\n  File "/home/yanesl/websites/foodbank/gluon/tools.py", line 1941, in __call__\n    return getattr(self, args[0])()\n  File "/home/yanesl/websites/foodbank/gluon/tools.py", line 3351, in register\n    hideerror=self.settings.hideerror):\n  File "/home/yanesl/websites/foodbank/gluon/sqlhtml.py", line 1529, in accepts\n    **kwargs\n  File "/home/yanesl/websites/foodbank/gluon/html.py", line 2122, in accepts\n    status = self._traverse(status, hideerror)\n  File "/home/yanesl/websites/foodbank/gluon/html.py", line 889, in _traverse\n    newstatus = c._traverse(status, hideerror) and newstatus\n  File "/home/yanesl/websites/foodbank/gluon/html.py", line 889, in _traverse\n    newstatus = c._traverse(status, hideerror) and newstatus\n  File "/home/yanesl/websites/foodbank/gluon/html.py", line 889, in _traverse\n    newstatus = c._traverse(status, hideerror) and newstatus\n  File "/home/yanesl/websites/foodbank/gluon/html.py", line 889, in _traverse\n    newstatus = c._traverse(status, hideerror) and newstatus\n  File "/home/yanesl/websites/foodbank/gluon/html.py", line 896, in _traverse\n    newstatus = self._validate()\n  File "/home/yanesl/websites/foodbank/gluon/html.py", line 1867, in _validate\n    raise Exception(msg)\nException: Validation error, field:email <gluon.validators.IS_NOT_IN_DB object at 0x7fecf83d02d0>\n'
p366
s.